opt subtitle "HI-TECH Software Omniscient Code Generator (Lite mode) build 10920"

opt pagewidth 120

	opt lm

	processor	16F877A
clrc	macro
	bcf	3,0
	endm
clrz	macro
	bcf	3,2
	endm
setc	macro
	bsf	3,0
	endm
setz	macro
	bsf	3,2
	endm
skipc	macro
	btfss	3,0
	endm
skipz	macro
	btfss	3,2
	endm
skipnc	macro
	btfsc	3,0
	endm
skipnz	macro
	btfsc	3,2
	endm
indf	equ	0
indf0	equ	0
pc	equ	2
pcl	equ	2
status	equ	3
fsr	equ	4
fsr0	equ	4
c	equ	1
z	equ	0
pclath	equ	10
# 8 "C:\Users\GauravLT\Desktop\AccessControlBy4Users\AccessControlUsingFingerSense-master\AccessControlUsingFingerSense-master\PIC16F877A_R307\main.c"
	psect config,class=CONFIG,delta=2 ;#
# 8 "C:\Users\GauravLT\Desktop\AccessControlBy4Users\AccessControlUsingFingerSense-master\AccessControlUsingFingerSense-master\PIC16F877A_R307\main.c"
	dw 0x3F3A ;#
	FNCALL	_main,_LcdInit
	FNCALL	_main,_Delay
	FNCALL	_main,_LcdPrint
	FNCALL	_main,_UartInit
	FNCALL	_main,_VerifyPswd
	FNCALL	_main,_menu
	FNCALL	_main,_ControlAccess
	FNCALL	_main,_AlterAdminUser
	FNCALL	_main,_AddNewUserAfterAdminConfirm
	FNCALL	_main,_EraseAllUsersAfterAdminConfirm
	FNCALL	_main,_DeleteUserAfterAdminConfirm
	FNCALL	_DeleteUserAfterAdminConfirm,_ee_read
	FNCALL	_DeleteUserAfterAdminConfirm,_LcdClear
	FNCALL	_DeleteUserAfterAdminConfirm,_LcdPrint
	FNCALL	_DeleteUserAfterAdminConfirm,_HiSpeedScan0
	FNCALL	_DeleteUserAfterAdminConfirm,_Delay
	FNCALL	_DeleteUserAfterAdminConfirm,_PutKey
	FNCALL	_DeleteUserAfterAdminConfirm,_KeyScan
	FNCALL	_DeleteUserAfterAdminConfirm,_IsKeyPending
	FNCALL	_DeleteUserAfterAdminConfirm,_GetKey
	FNCALL	_DeleteUserAfterAdminConfirm,___bmul
	FNCALL	_DeleteUserAfterAdminConfirm,_DeleteUser
	FNCALL	_DeleteUserAfterAdminConfirm,_memset1
	FNCALL	_DeleteUserAfterAdminConfirm,_DecToStr
	FNCALL	_DeleteUserAfterAdminConfirm,_releaseEElocation
	FNCALL	_AddNewUserAfterAdminConfirm,_ee_read
	FNCALL	_AddNewUserAfterAdminConfirm,_LcdClear
	FNCALL	_AddNewUserAfterAdminConfirm,_LcdPrint
	FNCALL	_AddNewUserAfterAdminConfirm,_HiSpeedScan0
	FNCALL	_AddNewUserAfterAdminConfirm,_Delay
	FNCALL	_AddNewUserAfterAdminConfirm,_PutKey
	FNCALL	_AddNewUserAfterAdminConfirm,_KeyScan
	FNCALL	_AddNewUserAfterAdminConfirm,_IsKeyPending
	FNCALL	_AddNewUserAfterAdminConfirm,_GetKey
	FNCALL	_AddNewUserAfterAdminConfirm,___bmul
	FNCALL	_AddNewUserAfterAdminConfirm,_AddNewUser
	FNCALL	_AddNewUserAfterAdminConfirm,_DecToStr
	FNCALL	_AlterAdminUser,_ee_read
	FNCALL	_AlterAdminUser,_LcdClear
	FNCALL	_AlterAdminUser,_LcdPrint
	FNCALL	_AlterAdminUser,_HiSpeedScan0
	FNCALL	_AlterAdminUser,_Delay
	FNCALL	_AlterAdminUser,_DeleteUser
	FNCALL	_AlterAdminUser,_AddNewUser
	FNCALL	_ControlAccess,_LcdClear
	FNCALL	_ControlAccess,_LcdPrint
	FNCALL	_ControlAccess,_memset1
	FNCALL	_ControlAccess,_HiSpeedScan0
	FNCALL	_ControlAccess,___awdiv
	FNCALL	_ControlAccess,___bmul
	FNCALL	_ControlAccess,_Delay
	FNCALL	_EraseAllUsersAfterAdminConfirm,_ee_read
	FNCALL	_EraseAllUsersAfterAdminConfirm,_LcdClear
	FNCALL	_EraseAllUsersAfterAdminConfirm,_LcdPrint
	FNCALL	_EraseAllUsersAfterAdminConfirm,_HiSpeedScan0
	FNCALL	_EraseAllUsersAfterAdminConfirm,_Delay
	FNCALL	_EraseAllUsersAfterAdminConfirm,_EraseAllUsers
	FNCALL	_EraseAllUsersAfterAdminConfirm,_ee_eraseNPos
	FNCALL	_EraseAllUsersAfterAdminConfirm,_ee_write
	FNCALL	_menu,_LcdClear
	FNCALL	_menu,_LcdPrint
	FNCALL	_menu,_KeyScan
	FNCALL	_menu,_IsKeyPending
	FNCALL	_menu,_GetKey
	FNCALL	_AddNewUser,_KeyScan
	FNCALL	_AddNewUser,_IsKeyPending
	FNCALL	_AddNewUser,_GetKey
	FNCALL	_AddNewUser,_ScanForImage
	FNCALL	_AddNewUser,_GenCharacterFileFromImage
	FNCALL	_AddNewUser,_AddUserA
	FNCALL	_AddNewUser,_AddUserB
	FNCALL	_AddNewUser,_AddUserC
	FNCALL	_AddNewUser,_reserveEElocation
	FNCALL	_HiSpeedScan0,_KeyScan
	FNCALL	_HiSpeedScan0,_IsKeyPending
	FNCALL	_HiSpeedScan0,_GetKey
	FNCALL	_HiSpeedScan0,_ScanForImage
	FNCALL	_HiSpeedScan0,_GenCharacterFileFromImage
	FNCALL	_HiSpeedScan0,_HiSpeedScan
	FNCALL	_AddUserC,_ClearUartBuffer
	FNCALL	_AddUserC,_sendPackage
	FNCALL	_AddUserC,_FillUpResponse
	FNCALL	_AddUserB,_ClearUartBuffer
	FNCALL	_AddUserB,_sendPackage
	FNCALL	_AddUserB,_FillUpResponse
	FNCALL	_AddUserA,_ClearUartBuffer
	FNCALL	_AddUserA,_sendPackage
	FNCALL	_AddUserA,_FillUpResponse
	FNCALL	_HiSpeedScan,_ClearUartBuffer
	FNCALL	_HiSpeedScan,_sendPackage
	FNCALL	_HiSpeedScan,_FillUpResponse
	FNCALL	_GenCharacterFileFromImage,_ClearUartBuffer
	FNCALL	_GenCharacterFileFromImage,_sendPackage
	FNCALL	_GenCharacterFileFromImage,_FillUpResponse
	FNCALL	_ScanForImage,_ClearUartBuffer
	FNCALL	_ScanForImage,_sendPackage
	FNCALL	_ScanForImage,_FillUpResponse
	FNCALL	_VerifyPswd,_ClearUartBuffer
	FNCALL	_VerifyPswd,_sendPackage
	FNCALL	_VerifyPswd,_FillUpResponse
	FNCALL	_DeleteUser,_ClearUartBuffer
	FNCALL	_DeleteUser,_sendPackage
	FNCALL	_DeleteUser,_FillUpResponse
	FNCALL	_EraseAllUsers,_ClearUartBuffer
	FNCALL	_EraseAllUsers,_sendPackage
	FNCALL	_EraseAllUsers,_FillUpResponse
	FNCALL	_LcdPrint,_UploadLcdBuffer
	FNCALL	_LcdInit,_LcdDelay
	FNCALL	_LcdInit,_SendByte
	FNCALL	_LcdInit,_LcdClear
	FNCALL	_sendPackage,_SendUartValue
	FNCALL	_sendPackage,_SendUartByte
	FNCALL	_DecToStr,_TotDigits
	FNCALL	_DecToStr,___llmod
	FNCALL	_DecToStr,___lldiv
	FNCALL	_KeyScan,_PutKey
	FNCALL	_UploadLcdBuffer,_SendByte
	FNCALL	_LcdClear,_memset1
	FNCALL	_LcdClear,_SendByte
	FNCALL	_TotDigits,___lldiv
	FNCALL	_reserveEElocation,_ee_write
	FNCALL	_reserveEElocation,_ee_read
	FNCALL	_FillUpResponse,_memset1
	FNCALL	_FillUpResponse,_IsUartBytePending
	FNCALL	_FillUpResponse,_GetUartByte
	FNCALL	_FillUpResponse,_ToggleEndianFormat
	FNCALL	_SendUartValue,_SendUartByte
	FNCALL	_releaseEElocation,_ee_write
	FNCALL	_releaseEElocation,_ee_read
	FNCALL	_PutKey,_LcdDelay
	FNCALL	_ee_eraseNPos,_ee_write
	FNCALL	_Delay,___lmul
	FNCALL	_SendByte,_LcdDelay
	FNROOT	_main
	FNCALL	_isr,_PutUartByte
	FNCALL	intlevel1,_isr
	global	intlevel1
	FNROOT	intlevel1
	global	HiSpeedScan@F1322
	global	HiSpeedScan@F1325
	global	DeleteUser@F1292
	global	VerifyPswd@F1294
	global	AddUserC@F1349
	global	DeleteUser@F1289
	global	_DefModuleAddress
	global	LoadFingerTemplate@F1312
	global	_PackageHeader
	global	AddUserA@F1335
	global	AddUserA@F1338
	global	AddUserB@F1340
	global	AddUserB@F1343
	global	AddUserC@F1346
	global	EraseAllUsers@F1330
	global	GenCharacterFileFromImage@F1303
	global	GenCharacterFileFromImage@F1305
	global	LoadFingerTemplate@F1309
	global	MatchTemplate@F1314
	global	ScanForImage@F1300
psect	idataBANK3,class=CODE,space=0,delta=2
global __pidataBANK3
__pidataBANK3:
	file	"C:\Users\GauravLT\Desktop\AccessControlBy4Users\AccessControlUsingFingerSense-master\AccessControlUsingFingerSense-master\PIC16F877A_R307\FingerPrintSensor_R307.c"
	line	341

;initializer for HiSpeedScan@F1322
	retlw	0FFh
	retlw	0FFh
	retlw	0FFh
	retlw	0FFh
	retlw	0
	line	343

;initializer for HiSpeedScan@F1325
	retlw	01h
	retlw	0
	retlw	0
	retlw	03h
	retlw	0E9h
psect	idataCOMMON,class=CODE,space=0,delta=2
global __pidataCOMMON
__pidataCOMMON:
	line	215

;initializer for DeleteUser@F1292
	retlw	0FFh
	line	229

;initializer for VerifyPswd@F1294
	retlw	0FFh
psect	idataBANK1,class=CODE,space=0,delta=2
global __pidataBANK1
__pidataBANK1:
	line	438

;initializer for AddUserC@F1349
	retlw	02h
	retlw	0
	retlw	0
	retlw	0
	line	213

;initializer for DeleteUser@F1289
	retlw	0
	retlw	0
	retlw	0
	retlw	01h
	line	11

;initializer for _DefModuleAddress
	retlw	0FFh
	retlw	0FFh
	retlw	0FFh
	retlw	0FFh

	line	272

;initializer for LoadFingerTemplate@F1312
	retlw	02h
	retlw	0
	retlw	0
	line	10

;initializer for _PackageHeader
	retlw	01h
	retlw	0EFh

	line	408

;initializer for AddUserA@F1335
	retlw	0FFh
	line	410

;initializer for AddUserA@F1338
	retlw	02h
	line	422

;initializer for AddUserB@F1340
	retlw	0FFh
	line	424

;initializer for AddUserB@F1343
	retlw	05h
	line	436

;initializer for AddUserC@F1346
	retlw	0FFh
	line	365

;initializer for EraseAllUsers@F1330
	retlw	0FFh
	line	256

;initializer for GenCharacterFileFromImage@F1303
	retlw	01h
	line	257

;initializer for GenCharacterFileFromImage@F1305
	retlw	0FFh
	line	270

;initializer for LoadFingerTemplate@F1309
	retlw	0FFh
	line	285

;initializer for MatchTemplate@F1314
	retlw	0FFh
	line	243

;initializer for ScanForImage@F1300
	retlw	0FFh
	global	_UserNoArr
psect	stringtext,class=STRCODE,delta=2,reloc=256
global __pstringtext
__pstringtext:
;	global	stringtab,__stringbase
stringtab:
;	String table - string pointers are 2 bytes each
	btfsc	(btemp+1),7
	ljmp	stringcode
	bcf	status,7
	btfsc	(btemp+1),0
	bsf	status,7
	movf	indf,w
	incf fsr
skipnz
incf btemp+1
	return
stringcode:
	movf btemp+1,w
andlw 7Fh
movwf	pclath
	movf	fsr,w
incf fsr
skipnz
incf btemp+1
	movwf pc
__stringbase:
	file	"C:\Users\GauravLT\Desktop\AccessControlBy4Users\AccessControlUsingFingerSense-master\AccessControlUsingFingerSense-master\PIC16F877A_R307\main.c"
	line	17
_UserNoArr:
	retlw	041h
	retlw	020h
	retlw	0
	retlw	042h
	retlw	020h
	retlw	0
	retlw	043h
	retlw	020h
	retlw	0
	retlw	044h
	retlw	020h
	retlw	0
	retlw	045h
	retlw	020h
	retlw	0
	retlw	046h
	retlw	020h
	retlw	0
	retlw	047h
	retlw	020h
	retlw	0
	retlw	048h
	retlw	020h
	retlw	0
	retlw	049h
	retlw	020h
	retlw	0
	retlw	04Ah
	retlw	020h
	retlw	0
	retlw	04Bh
	retlw	020h
	retlw	0
	retlw	04Ch
	retlw	020h
	retlw	0
	global	_UserNoArr
	global	_UartBuffer
	global	_KeypdBuffer
	global	_IxPtr
	global	_OxPtr
	global	_UartIxPtr
	global	_UartOxPtr
	global	__Package
	global	_buzzOffCounter
	global	EraseAllUsers@F1327
	global	MatchTemplate@F1317
	global	ScanForImage@F1298
	global	_LcdBuffer
	global	_DefModulePassword
	global	_PORTD
_PORTD	set	8
	global	_RCREG
_RCREG	set	26
	global	_RCSTA
_RCSTA	set	24
	global	_TXREG
_TXREG	set	25
	global	_CARRY
_CARRY	set	24
	global	_GIE
_GIE	set	95
	global	_PEIE
_PEIE	set	94
	global	_RB1
_RB1	set	49
	global	_RB2
_RB2	set	50
	global	_RB3
_RB3	set	51
	global	_RB5
_RB5	set	53
	global	_RC0
_RC0	set	56
	global	_RC1
_RC1	set	57
	global	_RC2
_RC2	set	58
	global	_RC3
_RC3	set	59
	global	_RCIF
_RCIF	set	101
	global	_RD6
_RD6	set	70
	global	_TXIF
_TXIF	set	100
	global	_SPBRG
_SPBRG	set	153
	global	_TRISB
_TRISB	set	134
	global	_TRISC
_TRISC	set	135
	global	_TRISD
_TRISD	set	136
	global	_TXSTA
_TXSTA	set	152
	global	_RCIE
_RCIE	set	1125
	global	_EEADR
_EEADR	set	269
	global	_EEDATA
_EEDATA	set	268
	global	_EECON1
_EECON1	set	396
	global	_EECON2
_EECON2	set	397
	global	_EEPGD
_EEPGD	set	3175
	global	_RD
_RD	set	3168
	global	_WR
_WR	set	3169
	global	_WREN
_WREN	set	3170
	global	_WRERR
_WRERR	set	3171
	
STR_36:	
	retlw	49	;'1'
	retlw	32	;' '
	retlw	65	;'A'
	retlw	100	;'d'
	retlw	100	;'d'
	retlw	32	;' '
	retlw	78	;'N'
	retlw	101	;'e'
	retlw	119	;'w'
	retlw	32	;' '
	retlw	85	;'U'
	retlw	115	;'s'
	retlw	101	;'e'
	retlw	114	;'r'
	retlw	10
	retlw	50	;'2'
	retlw	32	;' '
	retlw	68	;'D'
	retlw	101	;'e'
	retlw	108	;'l'
	retlw	101	;'e'
	retlw	116	;'t'
	retlw	101	;'e'
	retlw	32	;' '
	retlw	79	;'O'
	retlw	108	;'l'
	retlw	100	;'d'
	retlw	32	;' '
	retlw	85	;'U'
	retlw	115	;'s'
	retlw	101	;'e'
	retlw	114	;'r'
	retlw	0
psect	stringtext
	
STR_34:	
	retlw	49	;'1'
	retlw	32	;' '
	retlw	67	;'C'
	retlw	104	;'h'
	retlw	97	;'a'
	retlw	110	;'n'
	retlw	103	;'g'
	retlw	101	;'e'
	retlw	32	;' '
	retlw	65	;'A'
	retlw	100	;'d'
	retlw	109	;'m'
	retlw	105	;'i'
	retlw	110	;'n'
	retlw	10
	retlw	50	;'2'
	retlw	32	;' '
	retlw	65	;'A'
	retlw	100	;'d'
	retlw	100	;'d'
	retlw	47	;'/'
	retlw	68	;'D'
	retlw	101	;'e'
	retlw	108	;'l'
	retlw	32	;' '
	retlw	85	;'U'
	retlw	115	;'s'
	retlw	101	;'e'
	retlw	114	;'r'
	retlw	0
psect	stringtext
	
STR_33:	
	retlw	49	;'1'
	retlw	32	;' '
	retlw	70	;'F'
	retlw	111	;'o'
	retlw	114	;'r'
	retlw	32	;' '
	retlw	65	;'A'
	retlw	99	;'c'
	retlw	99	;'c'
	retlw	101	;'e'
	retlw	115	;'s'
	retlw	115	;'s'
	retlw	10
	retlw	50	;'2'
	retlw	32	;' '
	retlw	70	;'F'
	retlw	111	;'o'
	retlw	114	;'r'
	retlw	32	;' '
	retlw	65	;'A'
	retlw	108	;'l'
	retlw	116	;'t'
	retlw	101	;'e'
	retlw	114	;'r'
	retlw	32	;' '
	retlw	85	;'U'
	retlw	115	;'s'
	retlw	101	;'e'
	retlw	114	;'r'
	retlw	0
psect	stringtext
	
STR_37:	
	retlw	49	;'1'
	retlw	32	;' '
	retlw	68	;'D'
	retlw	101	;'e'
	retlw	108	;'l'
	retlw	101	;'e'
	retlw	116	;'t'
	retlw	101	;'e'
	retlw	32	;' '
	retlw	65	;'A'
	retlw	108	;'l'
	retlw	108	;'l'
	retlw	10
	retlw	50	;'2'
	retlw	32	;' '
	retlw	68	;'D'
	retlw	101	;'e'
	retlw	108	;'l'
	retlw	101	;'e'
	retlw	116	;'t'
	retlw	101	;'e'
	retlw	32	;' '
	retlw	83	;'S'
	retlw	105	;'i'
	retlw	110	;'n'
	retlw	103	;'g'
	retlw	108	;'l'
	retlw	101	;'e'
	retlw	0
psect	stringtext
	
STR_1:	
	retlw	65	;'A'
	retlw	100	;'d'
	retlw	109	;'m'
	retlw	105	;'i'
	retlw	110	;'n'
	retlw	32	;' '
	retlw	82	;'R'
	retlw	101	;'e'
	retlw	113	;'q'
	retlw	117	;'u'
	retlw	105	;'i'
	retlw	114	;'r'
	retlw	101	;'e'
	retlw	100	;'d'
	retlw	10
	retlw	80	;'P'
	retlw	108	;'l'
	retlw	97	;'a'
	retlw	99	;'c'
	retlw	101	;'e'
	retlw	32	;' '
	retlw	70	;'F'
	retlw	105	;'i'
	retlw	110	;'n'
	retlw	103	;'g'
	retlw	101	;'e'
	retlw	114	;'r'
	retlw	0
psect	stringtext
	
STR_35:	
	retlw	49	;'1'
	retlw	32	;' '
	retlw	65	;'A'
	retlw	100	;'d'
	retlw	109	;'m'
	retlw	105	;'i'
	retlw	110	;'n'
	retlw	32	;' '
	retlw	45	;'-'
	retlw	32	;' '
	retlw	48	;'0'
	retlw	48	;'0'
	retlw	10
	retlw	50	;'2'
	retlw	32	;' '
	retlw	65	;'A'
	retlw	100	;'d'
	retlw	109	;'m'
	retlw	105	;'i'
	retlw	110	;'n'
	retlw	32	;' '
	retlw	45	;'-'
	retlw	32	;' '
	retlw	48	;'0'
	retlw	49	;'1'
	retlw	0
psect	stringtext
	
STR_14:	
	retlw	69	;'E'
	retlw	114	;'r'
	retlw	114	;'r'
	retlw	111	;'o'
	retlw	114	;'r'
	retlw	32	;' '
	retlw	73	;'I'
	retlw	110	;'n'
	retlw	10
	retlw	32	;' '
	retlw	32	;' '
	retlw	82	;'R'
	retlw	101	;'e'
	retlw	103	;'g'
	retlw	105	;'i'
	retlw	115	;'s'
	retlw	116	;'t'
	retlw	101	;'e'
	retlw	114	;'r'
	retlw	97	;'a'
	retlw	116	;'t'
	retlw	105	;'i'
	retlw	111	;'o'
	retlw	110	;'n'
	retlw	0
psect	stringtext
	
STR_11:	
	retlw	80	;'P'
	retlw	108	;'l'
	retlw	122	;'z'
	retlw	32	;' '
	retlw	82	;'R'
	retlw	101	;'e'
	retlw	103	;'g'
	retlw	105	;'i'
	retlw	115	;'s'
	retlw	116	;'t'
	retlw	101	;'e'
	retlw	114	;'r'
	retlw	10
	retlw	32	;' '
	retlw	110	;'n'
	retlw	101	;'e'
	retlw	119	;'w'
	retlw	32	;' '
	retlw	65	;'A'
	retlw	100	;'d'
	retlw	109	;'m'
	retlw	105	;'i'
	retlw	110	;'n'
	retlw	0
psect	stringtext
	
STR_22:	
	retlw	69	;'E'
	retlw	114	;'r'
	retlw	114	;'r'
	retlw	111	;'o'
	retlw	114	;'r'
	retlw	32	;' '
	retlw	73	;'I'
	retlw	110	;'n'
	retlw	10
	retlw	32	;' '
	retlw	85	;'U'
	retlw	115	;'s'
	retlw	101	;'e'
	retlw	114	;'r'
	retlw	32	;' '
	retlw	67	;'C'
	retlw	114	;'r'
	retlw	101	;'e'
	retlw	97	;'a'
	retlw	116	;'t'
	retlw	105	;'i'
	retlw	111	;'o'
	retlw	110	;'n'
	retlw	0
psect	stringtext
	
STR_28:	
	retlw	85	;'U'
	retlw	115	;'s'
	retlw	101	;'e'
	retlw	114	;'r'
	retlw	32	;' '
	retlw	68	;'D'
	retlw	101	;'e'
	retlw	108	;'l'
	retlw	101	;'e'
	retlw	116	;'t'
	retlw	101	;'e'
	retlw	100	;'d'
	retlw	10
	retlw	85	;'U'
	retlw	115	;'s'
	retlw	101	;'e'
	retlw	114	;'r'
	retlw	32	;' '
	retlw	78	;'N'
	retlw	111	;'o'
	retlw	58	;':'
	retlw	0
psect	stringtext
	
STR_20:	
	retlw	78	;'N'
	retlw	101	;'e'
	retlw	119	;'w'
	retlw	32	;' '
	retlw	85	;'U'
	retlw	115	;'s'
	retlw	101	;'e'
	retlw	114	;'r'
	retlw	10
	retlw	80	;'P'
	retlw	108	;'l'
	retlw	97	;'a'
	retlw	99	;'c'
	retlw	101	;'e'
	retlw	32	;' '
	retlw	70	;'F'
	retlw	105	;'i'
	retlw	110	;'n'
	retlw	103	;'g'
	retlw	101	;'e'
	retlw	114	;'r'
	retlw	0
psect	stringtext
	
STR_21:	
	retlw	78	;'N'
	retlw	101	;'e'
	retlw	119	;'w'
	retlw	32	;' '
	retlw	85	;'U'
	retlw	115	;'s'
	retlw	101	;'e'
	retlw	114	;'r'
	retlw	10
	retlw	32	;' '
	retlw	67	;'C'
	retlw	114	;'r'
	retlw	101	;'e'
	retlw	97	;'a'
	retlw	116	;'t'
	retlw	101	;'e'
	retlw	100	;'d'
	retlw	32	;' '
	retlw	64	;'@'
	retlw	58	;':'
	retlw	0
psect	stringtext
	
STR_13:	
	retlw	65	;'A'
	retlw	100	;'d'
	retlw	109	;'m'
	retlw	105	;'i'
	retlw	110	;'n'
	retlw	32	;' '
	retlw	10
	retlw	32	;' '
	retlw	32	;' '
	retlw	82	;'R'
	retlw	101	;'e'
	retlw	103	;'g'
	retlw	105	;'i'
	retlw	115	;'s'
	retlw	116	;'t'
	retlw	101	;'e'
	retlw	114	;'r'
	retlw	101	;'e'
	retlw	100	;'d'
	retlw	0
psect	stringtext
	
STR_23:	
	retlw	73	;'I'
	retlw	110	;'n'
	retlw	100	;'d'
	retlw	101	;'e'
	retlw	120	;'x'
	retlw	32	;' '
	retlw	79	;'O'
	retlw	117	;'u'
	retlw	116	;'t'
	retlw	10
	retlw	32	;' '
	retlw	111	;'o'
	retlw	102	;'f'
	retlw	32	;' '
	retlw	98	;'b'
	retlw	111	;'o'
	retlw	117	;'u'
	retlw	110	;'n'
	retlw	100	;'d'
	retlw	0
psect	stringtext
	
STR_9:	
	retlw	67	;'C'
	retlw	97	;'a'
	retlw	110	;'n'
	retlw	39	;'''
	retlw	116	;'t'
	retlw	32	;' '
	retlw	68	;'D'
	retlw	101	;'e'
	retlw	108	;'l'
	retlw	101	;'e'
	retlw	116	;'t'
	retlw	101	;'e'
	retlw	10
	retlw	32	;' '
	retlw	65	;'A'
	retlw	100	;'d'
	retlw	109	;'m'
	retlw	105	;'i'
	retlw	110	;'n'
	retlw	0
psect	stringtext
	
STR_4:	
	retlw	65	;'A'
	retlw	108	;'l'
	retlw	108	;'l'
	retlw	32	;' '
	retlw	85	;'U'
	retlw	115	;'s'
	retlw	101	;'e'
	retlw	114	;'r'
	retlw	115	;'s'
	retlw	10
	retlw	32	;' '
	retlw	68	;'D'
	retlw	101	;'e'
	retlw	108	;'l'
	retlw	101	;'e'
	retlw	116	;'t'
	retlw	101	;'e'
	retlw	100	;'d'
	retlw	0
psect	stringtext
	
STR_19:	
	retlw	73	;'I'
	retlw	110	;'n'
	retlw	118	;'v'
	retlw	97	;'a'
	retlw	108	;'l'
	retlw	105	;'i'
	retlw	100	;'d'
	retlw	10
	retlw	32	;' '
	retlw	83	;'S'
	retlw	101	;'e'
	retlw	108	;'l'
	retlw	101	;'e'
	retlw	99	;'c'
	retlw	116	;'t'
	retlw	105	;'i'
	retlw	111	;'o'
	retlw	110	;'n'
	retlw	0
psect	stringtext
	
STR_3:	
	retlw	65	;'A'
	retlw	100	;'d'
	retlw	109	;'m'
	retlw	105	;'i'
	retlw	110	;'n'
	retlw	32	;' '
	retlw	78	;'N'
	retlw	111	;'o'
	retlw	116	;'t'
	retlw	10
	retlw	32	;' '
	retlw	32	;' '
	retlw	102	;'f'
	retlw	111	;'o'
	retlw	117	;'u'
	retlw	110	;'n'
	retlw	100	;'d'
	retlw	0
psect	stringtext
	
STR_8:	
	retlw	65	;'A'
	retlw	100	;'d'
	retlw	109	;'m'
	retlw	105	;'i'
	retlw	110	;'n'
	retlw	32	;' '
	retlw	68	;'D'
	retlw	101	;'e'
	retlw	108	;'l'
	retlw	101	;'e'
	retlw	116	;'t'
	retlw	101	;'e'
	retlw	100	;'d'
	retlw	0
psect	stringtext
	
STR_29:	
	retlw	67	;'C'
	retlw	97	;'a'
	retlw	110	;'n'
	retlw	110	;'n'
	retlw	111	;'o'
	retlw	116	;'t'
	retlw	32	;' '
	retlw	68	;'D'
	retlw	101	;'e'
	retlw	108	;'l'
	retlw	101	;'e'
	retlw	116	;'t'
	retlw	101	;'e'
	retlw	0
psect	stringtext
	
STR_2:	
	retlw	65	;'A'
	retlw	100	;'d'
	retlw	109	;'m'
	retlw	105	;'i'
	retlw	110	;'n'
	retlw	32	;' '
	retlw	102	;'f'
	retlw	111	;'o'
	retlw	117	;'u'
	retlw	110	;'n'
	retlw	100	;'d'
	retlw	0
psect	stringtext
	
STR_18:	
	retlw	83	;'S'
	retlw	101	;'e'
	retlw	108	;'l'
	retlw	101	;'e'
	retlw	99	;'c'
	retlw	116	;'t'
	retlw	32	;' '
	retlw	85	;'U'
	retlw	115	;'s'
	retlw	101	;'e'
	retlw	114	;'r'
	retlw	0
psect	stringtext
	
STR_32:	
	retlw	87	;'W'
	retlw	101	;'e'
	retlw	108	;'l'
	retlw	99	;'c'
	retlw	111	;'o'
	retlw	109	;'m'
	retlw	101	;'e'
	retlw	0
psect	stringtext
STR_26	equ	STR_18+0
STR_6	equ	STR_1+0
STR_15	equ	STR_1+0
STR_24	equ	STR_1+0
STR_5	equ	STR_1+15
STR_12	equ	STR_1+15
STR_27	equ	STR_19+0
STR_7	equ	STR_2+0
STR_16	equ	STR_2+0
STR_25	equ	STR_2+0
STR_10	equ	STR_3+0
STR_17	equ	STR_3+0
STR_31	equ	STR_3+0
STR_30	equ	STR_23+0
	file	"proj.as"
	line	#
psect cinit,class=CODE,delta=2
global start_initialization
start_initialization:

psect	bssCOMMON,class=COMMON,space=1
global __pbssCOMMON
__pbssCOMMON:
_IxPtr:
       ds      1

_OxPtr:
       ds      1

_UartIxPtr:
       ds      1

_UartOxPtr:
       ds      1

psect	dataCOMMON,class=COMMON,space=1
global __pdataCOMMON
__pdataCOMMON:
	file	"C:\Users\GauravLT\Desktop\AccessControlBy4Users\AccessControlUsingFingerSense-master\AccessControlUsingFingerSense-master\PIC16F877A_R307\FingerPrintSensor_R307.c"
	line	215
DeleteUser@F1292:
       ds      1

psect	dataCOMMON
	file	"C:\Users\GauravLT\Desktop\AccessControlBy4Users\AccessControlUsingFingerSense-master\AccessControlUsingFingerSense-master\PIC16F877A_R307\FingerPrintSensor_R307.c"
	line	229
VerifyPswd@F1294:
       ds      1

psect	bssBANK1,class=BANK1,space=1
global __pbssBANK1
__pbssBANK1:
__Package:
       ds      13

_buzzOffCounter:
       ds      2

EraseAllUsers@F1327:
       ds      1

MatchTemplate@F1317:
       ds      1

ScanForImage@F1298:
       ds      1

_DefModulePassword:
       ds      4

psect	dataBANK1,class=BANK1,space=1
global __pdataBANK1
__pdataBANK1:
	file	"C:\Users\GauravLT\Desktop\AccessControlBy4Users\AccessControlUsingFingerSense-master\AccessControlUsingFingerSense-master\PIC16F877A_R307\FingerPrintSensor_R307.c"
	line	438
AddUserC@F1349:
       ds      4

psect	dataBANK1
	file	"C:\Users\GauravLT\Desktop\AccessControlBy4Users\AccessControlUsingFingerSense-master\AccessControlUsingFingerSense-master\PIC16F877A_R307\FingerPrintSensor_R307.c"
	line	213
DeleteUser@F1289:
       ds      4

psect	dataBANK1
	file	"C:\Users\GauravLT\Desktop\AccessControlBy4Users\AccessControlUsingFingerSense-master\AccessControlUsingFingerSense-master\PIC16F877A_R307\FingerPrintSensor_R307.c"
	line	11
_DefModuleAddress:
       ds      4

psect	dataBANK1
	file	"C:\Users\GauravLT\Desktop\AccessControlBy4Users\AccessControlUsingFingerSense-master\AccessControlUsingFingerSense-master\PIC16F877A_R307\FingerPrintSensor_R307.c"
	line	272
LoadFingerTemplate@F1312:
       ds      3

psect	dataBANK1
	file	"C:\Users\GauravLT\Desktop\AccessControlBy4Users\AccessControlUsingFingerSense-master\AccessControlUsingFingerSense-master\PIC16F877A_R307\FingerPrintSensor_R307.c"
	line	10
_PackageHeader:
       ds      2

psect	dataBANK1
	file	"C:\Users\GauravLT\Desktop\AccessControlBy4Users\AccessControlUsingFingerSense-master\AccessControlUsingFingerSense-master\PIC16F877A_R307\FingerPrintSensor_R307.c"
	line	408
AddUserA@F1335:
       ds      1

psect	dataBANK1
	file	"C:\Users\GauravLT\Desktop\AccessControlBy4Users\AccessControlUsingFingerSense-master\AccessControlUsingFingerSense-master\PIC16F877A_R307\FingerPrintSensor_R307.c"
	line	410
AddUserA@F1338:
       ds      1

psect	dataBANK1
	file	"C:\Users\GauravLT\Desktop\AccessControlBy4Users\AccessControlUsingFingerSense-master\AccessControlUsingFingerSense-master\PIC16F877A_R307\FingerPrintSensor_R307.c"
	line	422
AddUserB@F1340:
       ds      1

psect	dataBANK1
	file	"C:\Users\GauravLT\Desktop\AccessControlBy4Users\AccessControlUsingFingerSense-master\AccessControlUsingFingerSense-master\PIC16F877A_R307\FingerPrintSensor_R307.c"
	line	424
AddUserB@F1343:
       ds      1

psect	dataBANK1
	file	"C:\Users\GauravLT\Desktop\AccessControlBy4Users\AccessControlUsingFingerSense-master\AccessControlUsingFingerSense-master\PIC16F877A_R307\FingerPrintSensor_R307.c"
	line	436
AddUserC@F1346:
       ds      1

psect	dataBANK1
	file	"C:\Users\GauravLT\Desktop\AccessControlBy4Users\AccessControlUsingFingerSense-master\AccessControlUsingFingerSense-master\PIC16F877A_R307\FingerPrintSensor_R307.c"
	line	365
EraseAllUsers@F1330:
       ds      1

psect	dataBANK1
	file	"C:\Users\GauravLT\Desktop\AccessControlBy4Users\AccessControlUsingFingerSense-master\AccessControlUsingFingerSense-master\PIC16F877A_R307\FingerPrintSensor_R307.c"
	line	256
GenCharacterFileFromImage@F1303:
       ds      1

psect	dataBANK1
	file	"C:\Users\GauravLT\Desktop\AccessControlBy4Users\AccessControlUsingFingerSense-master\AccessControlUsingFingerSense-master\PIC16F877A_R307\FingerPrintSensor_R307.c"
	line	257
GenCharacterFileFromImage@F1305:
       ds      1

psect	dataBANK1
	file	"C:\Users\GauravLT\Desktop\AccessControlBy4Users\AccessControlUsingFingerSense-master\AccessControlUsingFingerSense-master\PIC16F877A_R307\FingerPrintSensor_R307.c"
	line	270
LoadFingerTemplate@F1309:
       ds      1

psect	dataBANK1
	file	"C:\Users\GauravLT\Desktop\AccessControlBy4Users\AccessControlUsingFingerSense-master\AccessControlUsingFingerSense-master\PIC16F877A_R307\FingerPrintSensor_R307.c"
	line	285
MatchTemplate@F1314:
       ds      1

psect	dataBANK1
	file	"C:\Users\GauravLT\Desktop\AccessControlBy4Users\AccessControlUsingFingerSense-master\AccessControlUsingFingerSense-master\PIC16F877A_R307\FingerPrintSensor_R307.c"
	line	243
ScanForImage@F1300:
       ds      1

psect	bssBANK3,class=BANK3,space=1
global __pbssBANK3
__pbssBANK3:
_KeypdBuffer:
       ds      20

_LcdBuffer:
       ds      32

psect	dataBANK3,class=BANK3,space=1
global __pdataBANK3
__pdataBANK3:
	file	"C:\Users\GauravLT\Desktop\AccessControlBy4Users\AccessControlUsingFingerSense-master\AccessControlUsingFingerSense-master\PIC16F877A_R307\FingerPrintSensor_R307.c"
	line	341
HiSpeedScan@F1322:
       ds      5

psect	dataBANK3
	file	"C:\Users\GauravLT\Desktop\AccessControlBy4Users\AccessControlUsingFingerSense-master\AccessControlUsingFingerSense-master\PIC16F877A_R307\FingerPrintSensor_R307.c"
	line	343
HiSpeedScan@F1325:
       ds      5

psect	bssBANK2,class=BANK2,space=1
global __pbssBANK2
__pbssBANK2:
_UartBuffer:
       ds      56

psect clrtext,class=CODE,delta=2
global clear_ram
;	Called with FSR containing the base address, and
;	W with the last address+1
clear_ram:
	clrwdt			;clear the watchdog before getting into this loop
clrloop:
	clrf	indf		;clear RAM location pointed to by FSR
	incf	fsr,f		;increment pointer
	xorwf	fsr,w		;XOR with final address
	btfsc	status,2	;have we reached the end yet?
	retlw	0		;all done for this memory range, return
	xorwf	fsr,w		;XOR again to restore value
	goto	clrloop		;do the next byte

; Clear objects allocated to COMMON
psect cinit,class=CODE,delta=2
	clrf	((__pbssCOMMON)+0)&07Fh
	clrf	((__pbssCOMMON)+1)&07Fh
	clrf	((__pbssCOMMON)+2)&07Fh
	clrf	((__pbssCOMMON)+3)&07Fh
; Clear objects allocated to BANK1
psect cinit,class=CODE,delta=2
	bcf	status, 7	;select IRP bank0
	movlw	low(__pbssBANK1)
	movwf	fsr
	movlw	low((__pbssBANK1)+016h)
	fcall	clear_ram
; Clear objects allocated to BANK3
psect cinit,class=CODE,delta=2
	bsf	status, 7	;select IRP bank2
	movlw	low(__pbssBANK3)
	movwf	fsr
	movlw	low((__pbssBANK3)+034h)
	fcall	clear_ram
; Clear objects allocated to BANK2
psect cinit,class=CODE,delta=2
	movlw	low(__pbssBANK2)
	movwf	fsr
	movlw	low((__pbssBANK2)+038h)
	fcall	clear_ram
global btemp
psect inittext,class=CODE,delta=2
global init_fetch,btemp
;	Called with low address in FSR and high address in W
init_fetch:
	movf btemp,w
	movwf pclath
	movf btemp+1,w
	movwf pc
global init_ram
;Called with:
;	high address of idata address in btemp 
;	low address of idata address in btemp+1 
;	low address of data in FSR
;	high address + 1 of data in btemp-1
init_ram:
	fcall init_fetch
	movwf indf,f
	incf fsr,f
	movf fsr,w
	xorwf btemp-1,w
	btfsc status,2
	retlw 0
	incf btemp+1,f
	btfsc status,2
	incf btemp,f
	goto init_ram
; Initialize objects allocated to BANK3
psect cinit,class=CODE,delta=2
global init_ram, __pidataBANK3
	movlw low(__pdataBANK3+10)
	movwf btemp-1,f
	movlw high(__pidataBANK3)
	movwf btemp,f
	movlw low(__pidataBANK3)
	movwf btemp+1,f
	movlw low(__pdataBANK3)
	movwf fsr,f
	fcall init_ram
; Initialize objects allocated to BANK1
psect cinit,class=CODE,delta=2
global init_ram, __pidataBANK1
	bcf	status, 7	;select IRP bank0
	movlw low(__pdataBANK1+28)
	movwf btemp-1,f
	movlw high(__pidataBANK1)
	movwf btemp,f
	movlw low(__pidataBANK1)
	movwf btemp+1,f
	movlw low(__pdataBANK1)
	movwf fsr,f
	fcall init_ram
; Initialize objects allocated to COMMON
	global __pidataCOMMON
psect cinit,class=CODE,delta=2
	fcall	__pidataCOMMON+0		;fetch initializer
	movwf	__pdataCOMMON+0&07fh		
	fcall	__pidataCOMMON+1		;fetch initializer
	movwf	__pdataCOMMON+1&07fh		
psect cinit,class=CODE,delta=2
global end_of_initialization

;End of C runtime variable initialization code

end_of_initialization:
clrf status
ljmp _main	;jump to C main() function
psect	cstackBANK1,class=BANK1,space=1
global __pcstackBANK1
__pcstackBANK1:
	global	??_AddNewUserAfterAdminConfirm
??_AddNewUserAfterAdminConfirm:	; 0 bytes @ 0x0
	global	ControlAccess@SwitchRelay
ControlAccess@SwitchRelay:	; 1 bytes @ 0x0
	global	AlterAdminUser@Create0thPositionUser
AlterAdminUser@Create0thPositionUser:	; 1 bytes @ 0x0
	global	DeleteUserAfterAdminConfirm@buff
DeleteUserAfterAdminConfirm@buff:	; 10 bytes @ 0x0
	ds	1
	global	AlterAdminUser@result
AlterAdminUser@result:	; 1 bytes @ 0x1
	global	ControlAccess@SelectedUserArr
ControlAccess@SelectedUserArr:	; 4 bytes @ 0x1
	ds	1
	global	AlterAdminUser@NewUserResult
AlterAdminUser@NewUserResult:	; 1 bytes @ 0x2
	ds	1
	global	AlterAdminUser@UserNo
AlterAdminUser@UserNo:	; 1 bytes @ 0x3
	ds	1
	global	AlterAdminUser@UserIndex
AlterAdminUser@UserIndex:	; 1 bytes @ 0x4
	ds	1
	global	ControlAccess@result
ControlAccess@result:	; 1 bytes @ 0x5
	ds	1
	global	ControlAccess@c
ControlAccess@c:	; 1 bytes @ 0x6
	global	AddNewUserAfterAdminConfirm@buff_2228
AddNewUserAfterAdminConfirm@buff_2228:	; 10 bytes @ 0x6
	ds	1
	global	ControlAccess@UserNo
ControlAccess@UserNo:	; 1 bytes @ 0x7
	ds	3
	global	DeleteUserAfterAdminConfirm@isDeleteUser
DeleteUserAfterAdminConfirm@isDeleteUser:	; 1 bytes @ 0xA
	ds	1
	global	DeleteUserAfterAdminConfirm@result
DeleteUserAfterAdminConfirm@result:	; 1 bytes @ 0xB
	ds	1
	global	DeleteUserAfterAdminConfirm@UserNo
DeleteUserAfterAdminConfirm@UserNo:	; 1 bytes @ 0xC
	ds	1
	global	DeleteUserAfterAdminConfirm@key
DeleteUserAfterAdminConfirm@key:	; 1 bytes @ 0xD
	ds	1
	global	DeleteUserAfterAdminConfirm@DelUserNo
DeleteUserAfterAdminConfirm@DelUserNo:	; 1 bytes @ 0xE
	ds	2
	global	AddNewUserAfterAdminConfirm@buff
AddNewUserAfterAdminConfirm@buff:	; 5 bytes @ 0x10
	ds	5
	global	AddNewUserAfterAdminConfirm@isAddNewUser
AddNewUserAfterAdminConfirm@isAddNewUser:	; 1 bytes @ 0x15
	ds	1
	global	AddNewUserAfterAdminConfirm@result
AddNewUserAfterAdminConfirm@result:	; 1 bytes @ 0x16
	ds	1
	global	AddNewUserAfterAdminConfirm@availSpaceResult
AddNewUserAfterAdminConfirm@availSpaceResult:	; 1 bytes @ 0x17
	ds	1
	global	AddNewUserAfterAdminConfirm@AddNewUserResult
AddNewUserAfterAdminConfirm@AddNewUserResult:	; 1 bytes @ 0x18
	ds	1
	global	AddNewUserAfterAdminConfirm@UserNo
AddNewUserAfterAdminConfirm@UserNo:	; 1 bytes @ 0x19
	ds	1
	global	AddNewUserAfterAdminConfirm@key
AddNewUserAfterAdminConfirm@key:	; 1 bytes @ 0x1A
	ds	1
	global	AddNewUserAfterAdminConfirm@_availSpaceResult
AddNewUserAfterAdminConfirm@_availSpaceResult:	; 1 bytes @ 0x1B
	ds	1
	global	main@menuResponse
main@menuResponse:	; 1 bytes @ 0x1C
	ds	1
psect	cstackCOMMON,class=COMMON,space=1
global __pcstackCOMMON
__pcstackCOMMON:
	global	?_LcdClear
?_LcdClear:	; 0 bytes @ 0x0
	global	?_ee_eraseNPos
?_ee_eraseNPos:	; 0 bytes @ 0x0
	global	?_PutKey
?_PutKey:	; 0 bytes @ 0x0
	global	?_KeyScan
?_KeyScan:	; 0 bytes @ 0x0
	global	?_releaseEElocation
?_releaseEElocation:	; 0 bytes @ 0x0
	global	?_PutUartByte
?_PutUartByte:	; 0 bytes @ 0x0
	global	??_PutUartByte
??_PutUartByte:	; 0 bytes @ 0x0
	global	?_UartInit
?_UartInit:	; 0 bytes @ 0x0
	global	?_reserveEElocation
?_reserveEElocation:	; 0 bytes @ 0x0
	global	?_LcdInit
?_LcdInit:	; 0 bytes @ 0x0
	global	?_UploadLcdBuffer
?_UploadLcdBuffer:	; 0 bytes @ 0x0
	global	?_isr
?_isr:	; 0 bytes @ 0x0
	global	?_main
?_main:	; 0 bytes @ 0x0
	global	?_SendUartByte
?_SendUartByte:	; 0 bytes @ 0x0
	global	?_ClearUartBuffer
?_ClearUartBuffer:	; 0 bytes @ 0x0
	global	?_ee_read
?_ee_read:	; 1 bytes @ 0x0
	global	?_HiSpeedScan0
?_HiSpeedScan0:	; 1 bytes @ 0x0
	global	?_EraseAllUsers
?_EraseAllUsers:	; 1 bytes @ 0x0
	global	?_DeleteUser
?_DeleteUser:	; 1 bytes @ 0x0
	global	?_AddNewUser
?_AddNewUser:	; 1 bytes @ 0x0
	global	?_IsKeyPending
?_IsKeyPending:	; 1 bytes @ 0x0
	global	?_GetKey
?_GetKey:	; 1 bytes @ 0x0
	global	?_VerifyPswd
?_VerifyPswd:	; 1 bytes @ 0x0
	global	?_HiSpeedScan
?_HiSpeedScan:	; 1 bytes @ 0x0
	global	?_EraseAllUsersAfterAdminConfirm
?_EraseAllUsersAfterAdminConfirm:	; 1 bytes @ 0x0
	global	?_ControlAccess
?_ControlAccess:	; 1 bytes @ 0x0
	global	?_AlterAdminUser
?_AlterAdminUser:	; 1 bytes @ 0x0
	global	?_AddNewUserAfterAdminConfirm
?_AddNewUserAfterAdminConfirm:	; 1 bytes @ 0x0
	global	?_DeleteUserAfterAdminConfirm
?_DeleteUserAfterAdminConfirm:	; 1 bytes @ 0x0
	global	?_IsUartBytePending
?_IsUartBytePending:	; 1 bytes @ 0x0
	global	?_GetUartByte
?_GetUartByte:	; 1 bytes @ 0x0
	global	?_ScanForImage
?_ScanForImage:	; 1 bytes @ 0x0
	global	?_GenCharacterFileFromImage
?_GenCharacterFileFromImage:	; 1 bytes @ 0x0
	global	?_AddUserA
?_AddUserA:	; 1 bytes @ 0x0
	global	?_AddUserB
?_AddUserB:	; 1 bytes @ 0x0
	global	?_AddUserC
?_AddUserC:	; 1 bytes @ 0x0
	ds	1
	global	PutUartByte@val
PutUartByte@val:	; 1 bytes @ 0x1
	ds	1
	global	??_isr
??_isr:	; 0 bytes @ 0x2
	ds	4
psect	cstackBANK0,class=BANK0,space=1
global __pcstackBANK0
__pcstackBANK0:
	global	?_LcdDelay
?_LcdDelay:	; 0 bytes @ 0x0
	global	?_memset1
?_memset1:	; 0 bytes @ 0x0
	global	??_ee_read
??_ee_read:	; 0 bytes @ 0x0
	global	??_IsKeyPending
??_IsKeyPending:	; 0 bytes @ 0x0
	global	??_GetKey
??_GetKey:	; 0 bytes @ 0x0
	global	??_UartInit
??_UartInit:	; 0 bytes @ 0x0
	global	??_SendUartByte
??_SendUartByte:	; 0 bytes @ 0x0
	global	??_ClearUartBuffer
??_ClearUartBuffer:	; 0 bytes @ 0x0
	global	??_IsUartBytePending
??_IsUartBytePending:	; 0 bytes @ 0x0
	global	??_GetUartByte
??_GetUartByte:	; 0 bytes @ 0x0
	global	?___bmul
?___bmul:	; 1 bytes @ 0x0
	global	?___awdiv
?___awdiv:	; 2 bytes @ 0x0
	global	?_ToggleEndianFormat
?_ToggleEndianFormat:	; 4 bytes @ 0x0
	global	?___lmul
?___lmul:	; 4 bytes @ 0x0
	global	?___llmod
?___llmod:	; 4 bytes @ 0x0
	global	?___lldiv
?___lldiv:	; 4 bytes @ 0x0
	global	SendUartByte@val
SendUartByte@val:	; 1 bytes @ 0x0
	global	___bmul@multiplicand
___bmul@multiplicand:	; 1 bytes @ 0x0
	global	LcdDelay@d
LcdDelay@d:	; 2 bytes @ 0x0
	global	memset1@str
memset1@str:	; 2 bytes @ 0x0
	global	___awdiv@divisor
___awdiv@divisor:	; 2 bytes @ 0x0
	global	ToggleEndianFormat@val
ToggleEndianFormat@val:	; 4 bytes @ 0x0
	global	___lmul@multiplier
___lmul@multiplier:	; 4 bytes @ 0x0
	global	___llmod@divisor
___llmod@divisor:	; 4 bytes @ 0x0
	global	___lldiv@divisor
___lldiv@divisor:	; 4 bytes @ 0x0
	ds	1
	global	?_SendUartValue
?_SendUartValue:	; 0 bytes @ 0x1
	global	??___bmul
??___bmul:	; 0 bytes @ 0x1
	global	GetKey@key
GetKey@key:	; 1 bytes @ 0x1
	global	ClearUartBuffer@i
ClearUartBuffer@i:	; 1 bytes @ 0x1
	global	GetUartByte@val
GetUartByte@val:	; 1 bytes @ 0x1
	global	ee_read@a
ee_read@a:	; 1 bytes @ 0x1
	global	SendUartValue@value
SendUartValue@value:	; 4 bytes @ 0x1
	ds	1
	global	??_LcdDelay
??_LcdDelay:	; 0 bytes @ 0x2
	global	?_SendByte
?_SendByte:	; 0 bytes @ 0x2
	global	??_PutKey
??_PutKey:	; 0 bytes @ 0x2
	global	SendByte@val
SendByte@val:	; 1 bytes @ 0x2
	global	ee_read@d
ee_read@d:	; 1 bytes @ 0x2
	global	memset1@data
memset1@data:	; 1 bytes @ 0x2
	global	___bmul@product
___bmul@product:	; 1 bytes @ 0x2
	global	___awdiv@dividend
___awdiv@dividend:	; 2 bytes @ 0x2
	ds	1
	global	??_SendByte
??_SendByte:	; 0 bytes @ 0x3
	global	?_ee_write
?_ee_write:	; 0 bytes @ 0x3
	global	PutKey@key
PutKey@key:	; 1 bytes @ 0x3
	global	ee_write@d
ee_write@d:	; 1 bytes @ 0x3
	global	___bmul@multiplier
___bmul@multiplier:	; 1 bytes @ 0x3
	global	memset1@len
memset1@len:	; 2 bytes @ 0x3
	ds	1
	global	??_ee_write
??_ee_write:	; 0 bytes @ 0x4
	global	??_KeyScan
??_KeyScan:	; 0 bytes @ 0x4
	global	??___awdiv
??___awdiv:	; 0 bytes @ 0x4
	global	SendByte@Mode
SendByte@Mode:	; 1 bytes @ 0x4
	global	ToggleEndianFormat@size
ToggleEndianFormat@size:	; 1 bytes @ 0x4
	global	ee_write@a
ee_write@a:	; 1 bytes @ 0x4
	global	___lmul@multiplicand
___lmul@multiplicand:	; 4 bytes @ 0x4
	global	___llmod@dividend
___llmod@dividend:	; 4 bytes @ 0x4
	global	___lldiv@dividend
___lldiv@dividend:	; 4 bytes @ 0x4
	ds	1
	global	??_memset1
??_memset1:	; 0 bytes @ 0x5
	global	??_ee_eraseNPos
??_ee_eraseNPos:	; 0 bytes @ 0x5
	global	??_releaseEElocation
??_releaseEElocation:	; 0 bytes @ 0x5
	global	??_reserveEElocation
??_reserveEElocation:	; 0 bytes @ 0x5
	global	??_UploadLcdBuffer
??_UploadLcdBuffer:	; 0 bytes @ 0x5
	global	??_ToggleEndianFormat
??_ToggleEndianFormat:	; 0 bytes @ 0x5
	global	KeyScan@keyNo
KeyScan@keyNo:	; 1 bytes @ 0x5
	global	SendUartValue@size
SendUartValue@size:	; 1 bytes @ 0x5
	global	___awdiv@counter
___awdiv@counter:	; 1 bytes @ 0x5
	ds	1
	global	??_SendUartValue
??_SendUartValue:	; 0 bytes @ 0x6
	global	ee_eraseNPos@n
ee_eraseNPos@n:	; 1 bytes @ 0x6
	global	reserveEElocation@loc
reserveEElocation@loc:	; 1 bytes @ 0x6
	global	releaseEElocation@loc
releaseEElocation@loc:	; 1 bytes @ 0x6
	global	___awdiv@sign
___awdiv@sign:	; 1 bytes @ 0x6
	ds	1
	global	ee_eraseNPos@i
ee_eraseNPos@i:	; 1 bytes @ 0x7
	global	___awdiv@quotient
___awdiv@quotient:	; 2 bytes @ 0x7
	ds	1
	global	??_LcdClear
??_LcdClear:	; 0 bytes @ 0x8
	global	??_LcdInit
??_LcdInit:	; 0 bytes @ 0x8
	global	??___lmul
??___lmul:	; 0 bytes @ 0x8
	global	??___llmod
??___llmod:	; 0 bytes @ 0x8
	global	??___lldiv
??___lldiv:	; 0 bytes @ 0x8
	ds	1
	global	UploadLcdBuffer@i
UploadLcdBuffer@i:	; 1 bytes @ 0x9
	global	___llmod@counter
___llmod@counter:	; 1 bytes @ 0x9
	global	___lmul@product
___lmul@product:	; 4 bytes @ 0x9
	global	___lldiv@quotient
___lldiv@quotient:	; 4 bytes @ 0x9
	ds	1
	global	UploadLcdBuffer@j
UploadLcdBuffer@j:	; 1 bytes @ 0xA
	ds	1
	global	?_LcdPrint
?_LcdPrint:	; 0 bytes @ 0xB
	global	?_sendPackage
?_sendPackage:	; 0 bytes @ 0xB
	global	sendPackage@length
sendPackage@length:	; 1 bytes @ 0xB
	global	LcdPrint@s
LcdPrint@s:	; 2 bytes @ 0xB
	ds	1
	global	sendPackage@instruction
sendPackage@instruction:	; 1 bytes @ 0xC
	ds	1
	global	?_Delay
?_Delay:	; 0 bytes @ 0xD
	global	LcdPrint@rowNo
LcdPrint@rowNo:	; 1 bytes @ 0xD
	global	sendPackage@content
sendPackage@content:	; 1 bytes @ 0xD
	global	___lldiv@counter
___lldiv@counter:	; 1 bytes @ 0xD
	global	Delay@d
Delay@d:	; 2 bytes @ 0xD
	ds	1
	global	??_sendPackage
??_sendPackage:	; 0 bytes @ 0xE
	global	?_TotDigits
?_TotDigits:	; 1 bytes @ 0xE
	global	LcdPrint@colNo
LcdPrint@colNo:	; 1 bytes @ 0xE
	global	TotDigits@val
TotDigits@val:	; 4 bytes @ 0xE
	ds	1
	global	??_Delay
??_Delay:	; 0 bytes @ 0xF
	global	??_LcdPrint
??_LcdPrint:	; 0 bytes @ 0xF
	ds	3
	global	??_TotDigits
??_TotDigits:	; 0 bytes @ 0x12
	ds	1
	global	?_menu
?_menu:	; 1 bytes @ 0x13
	global	TotDigits@result
TotDigits@result:	; 1 bytes @ 0x13
	global	menu@s
menu@s:	; 2 bytes @ 0x13
	global	Delay@dd
Delay@dd:	; 4 bytes @ 0x13
	ds	1
	global	?_DecToStr
?_DecToStr:	; 0 bytes @ 0x14
	global	DecToStr@val
DecToStr@val:	; 4 bytes @ 0x14
	ds	1
	global	??_menu
??_menu:	; 0 bytes @ 0x15
	global	ToggleEndianFormat@result
ToggleEndianFormat@result:	; 2 bytes @ 0x15
	ds	1
	global	menu@keyHit
menu@keyHit:	; 1 bytes @ 0x16
	global	sendPackage@identifier
sendPackage@identifier:	; 1 bytes @ 0x16
	ds	1
	global	?_FillUpResponse
?_FillUpResponse:	; 1 bytes @ 0x17
	global	FillUpResponse@confirmationCode
FillUpResponse@confirmationCode:	; 1 bytes @ 0x17
	global	sendPackage@i
sendPackage@i:	; 2 bytes @ 0x17
	ds	1
	global	??_FillUpResponse
??_FillUpResponse:	; 0 bytes @ 0x18
	global	DecToStr@dest
DecToStr@dest:	; 1 bytes @ 0x18
	ds	1
	global	DecToStr@minDigit
DecToStr@minDigit:	; 1 bytes @ 0x19
	ds	1
	global	??_DecToStr
??_DecToStr:	; 0 bytes @ 0x1A
	ds	2
	global	DecToStr@len
DecToStr@len:	; 1 bytes @ 0x1C
	ds	4
	global	FillUpResponse@data
FillUpResponse@data:	; 1 bytes @ 0x20
	ds	1
	global	FillUpResponse@wait
FillUpResponse@wait:	; 4 bytes @ 0x21
	ds	4
	global	FillUpResponse@chkSumDigitCount
FillUpResponse@chkSumDigitCount:	; 1 bytes @ 0x25
	ds	1
	global	FillUpResponse@checkSumCalculated
FillUpResponse@checkSumCalculated:	; 2 bytes @ 0x26
	ds	2
	global	FillUpResponse@l
FillUpResponse@l:	; 1 bytes @ 0x28
	ds	1
	global	FillUpResponse@respPtr
FillUpResponse@respPtr:	; 1 bytes @ 0x29
	ds	1
	global	FillUpResponse@chkLength
FillUpResponse@chkLength:	; 1 bytes @ 0x2A
	ds	1
	global	FillUpResponse@i
FillUpResponse@i:	; 1 bytes @ 0x2B
	ds	1
	global	FillUpResponse@c
FillUpResponse@c:	; 1 bytes @ 0x2C
	ds	1
	global	FillUpResponse@_Response
FillUpResponse@_Response:	; 12 bytes @ 0x2D
	ds	12
	global	??_EraseAllUsers
??_EraseAllUsers:	; 0 bytes @ 0x39
	global	??_DeleteUser
??_DeleteUser:	; 0 bytes @ 0x39
	global	??_VerifyPswd
??_VerifyPswd:	; 0 bytes @ 0x39
	global	??_HiSpeedScan
??_HiSpeedScan:	; 0 bytes @ 0x39
	global	??_ScanForImage
??_ScanForImage:	; 0 bytes @ 0x39
	global	??_GenCharacterFileFromImage
??_GenCharacterFileFromImage:	; 0 bytes @ 0x39
	global	??_AddUserA
??_AddUserA:	; 0 bytes @ 0x39
	global	??_AddUserB
??_AddUserB:	; 0 bytes @ 0x39
	global	??_AddUserC
??_AddUserC:	; 0 bytes @ 0x39
	ds	2
	global	ScanForImage@contentData
ScanForImage@contentData:	; 1 bytes @ 0x3B
	ds	1
	global	VerifyPswd@dataOut
VerifyPswd@dataOut:	; 1 bytes @ 0x3C
	global	ScanForImage@dataOut
ScanForImage@dataOut:	; 1 bytes @ 0x3C
	global	GenCharacterFileFromImage@contentData
GenCharacterFileFromImage@contentData:	; 1 bytes @ 0x3C
	global	EraseAllUsers@contentData
EraseAllUsers@contentData:	; 1 bytes @ 0x3C
	global	AddUserA@dataOut
AddUserA@dataOut:	; 1 bytes @ 0x3C
	global	AddUserB@dataOut
AddUserB@dataOut:	; 1 bytes @ 0x3C
	global	DeleteUser@contentData
DeleteUser@contentData:	; 4 bytes @ 0x3C
	global	AddUserC@contentData
AddUserC@contentData:	; 4 bytes @ 0x3C
	global	HiSpeedScan@contentData
HiSpeedScan@contentData:	; 5 bytes @ 0x3C
	ds	1
	global	VerifyPswd@confirmationCode
VerifyPswd@confirmationCode:	; 1 bytes @ 0x3D
	global	ScanForImage@confirmationCode
ScanForImage@confirmationCode:	; 1 bytes @ 0x3D
	global	GenCharacterFileFromImage@dataOut
GenCharacterFileFromImage@dataOut:	; 1 bytes @ 0x3D
	global	EraseAllUsers@dataOut
EraseAllUsers@dataOut:	; 1 bytes @ 0x3D
	global	AddUserA@contentData
AddUserA@contentData:	; 1 bytes @ 0x3D
	global	AddUserB@contentData
AddUserB@contentData:	; 1 bytes @ 0x3D
	ds	1
	global	GenCharacterFileFromImage@confirmationCode
GenCharacterFileFromImage@confirmationCode:	; 1 bytes @ 0x3E
	global	EraseAllUsers@confirmationCode
EraseAllUsers@confirmationCode:	; 1 bytes @ 0x3E
	global	AddUserA@confirmationCode
AddUserA@confirmationCode:	; 1 bytes @ 0x3E
	global	AddUserB@confirmationCode
AddUserB@confirmationCode:	; 1 bytes @ 0x3E
	ds	2
	global	DeleteUser@UserNo
DeleteUser@UserNo:	; 1 bytes @ 0x40
	global	AddUserC@position
AddUserC@position:	; 1 bytes @ 0x40
	ds	1
	global	DeleteUser@dataOut
DeleteUser@dataOut:	; 1 bytes @ 0x41
	global	AddUserC@dataOut
AddUserC@dataOut:	; 1 bytes @ 0x41
	global	HiSpeedScan@dataOut
HiSpeedScan@dataOut:	; 5 bytes @ 0x41
	ds	1
	global	DeleteUser@confirmationCode
DeleteUser@confirmationCode:	; 1 bytes @ 0x42
	global	AddUserC@confirmationCode
AddUserC@confirmationCode:	; 1 bytes @ 0x42
	ds	1
	global	??_AddNewUser
??_AddNewUser:	; 0 bytes @ 0x43
	ds	1
	global	AddNewUser@position
AddNewUser@position:	; 1 bytes @ 0x44
	ds	1
	global	AddNewUser@scanResult
AddNewUser@scanResult:	; 1 bytes @ 0x45
	ds	1
	global	HiSpeedScan@UserNo
HiSpeedScan@UserNo:	; 1 bytes @ 0x46
	ds	1
	global	HiSpeedScan@confirmationCode
HiSpeedScan@confirmationCode:	; 1 bytes @ 0x47
	ds	1
	global	??_HiSpeedScan0
??_HiSpeedScan0:	; 0 bytes @ 0x48
	ds	1
	global	HiSpeedScan0@UserNo
HiSpeedScan0@UserNo:	; 1 bytes @ 0x49
	ds	1
	global	HiSpeedScan0@scanResult
HiSpeedScan0@scanResult:	; 1 bytes @ 0x4A
	ds	1
	global	??_EraseAllUsersAfterAdminConfirm
??_EraseAllUsersAfterAdminConfirm:	; 0 bytes @ 0x4B
	global	??_ControlAccess
??_ControlAccess:	; 0 bytes @ 0x4B
	global	??_AlterAdminUser
??_AlterAdminUser:	; 0 bytes @ 0x4B
	global	??_DeleteUserAfterAdminConfirm
??_DeleteUserAfterAdminConfirm:	; 0 bytes @ 0x4B
	ds	1
	global	EraseAllUsersAfterAdminConfirm@isEraseAllUsers
EraseAllUsersAfterAdminConfirm@isEraseAllUsers:	; 1 bytes @ 0x4C
	ds	1
	global	EraseAllUsersAfterAdminConfirm@result
EraseAllUsersAfterAdminConfirm@result:	; 1 bytes @ 0x4D
	ds	1
	global	EraseAllUsersAfterAdminConfirm@UserNo
EraseAllUsersAfterAdminConfirm@UserNo:	; 1 bytes @ 0x4E
	ds	1
	global	??_main
??_main:	; 0 bytes @ 0x4F
	ds	1
;;Data sizes: Strings 490, constant 36, data 40, bss 134, persistent 0 stack 0
;;Auto spaces:   Size  Autos    Used
;; COMMON          13      6      12
;; BANK0           80     80      80
;; BANK1           80     29      79
;; BANK3           85      0      62
;; BANK2           96      0      56

;;
;; Pointer list with targets:

;; ?___llmod	unsigned long  size(1) Largest target is 0
;;
;; ?___lldiv	unsigned long  size(1) Largest target is 0
;;
;; ?___lmul	unsigned long  size(1) Largest target is 0
;;
;; ?_ToggleEndianFormat	unsigned long  size(1) Largest target is 0
;;
;; ?___awdiv	int  size(1) Largest target is 0
;;
;; DecToStr@dest	PTR unsigned char  size(1) Largest target is 10
;;		 -> DeleteUserAfterAdminConfirm@buff(BANK1[10]), AddNewUserAfterAdminConfirm@buff_2228(BANK1[10]), 
;;
;; memset1@str	PTR unsigned char  size(2) Largest target is 32
;;		 -> FillUpResponse@_Response(BANK0[12]), DeleteUserAfterAdminConfirm@buff(BANK1[10]), ControlAccess@SelectedUserArr(BANK1[4]), LcdBuffer(BANK3[32]), 
;;
;; HiSpeedScan@UserNo	PTR unsigned char  size(1) Largest target is 1
;;		 -> DeleteUserAfterAdminConfirm@UserNo(BANK1[1]), AddNewUserAfterAdminConfirm@UserNo(BANK1[1]), AlterAdminUser@UserNo(BANK1[1]), ControlAccess@UserNo(BANK1[1]), 
;;		 -> EraseAllUsersAfterAdminConfirm@UserNo(BANK0[1]), 
;;
;; HiSpeedScan0@UserNo	PTR unsigned char  size(1) Largest target is 1
;;		 -> DeleteUserAfterAdminConfirm@UserNo(BANK1[1]), AddNewUserAfterAdminConfirm@UserNo(BANK1[1]), AlterAdminUser@UserNo(BANK1[1]), ControlAccess@UserNo(BANK1[1]), 
;;		 -> EraseAllUsersAfterAdminConfirm@UserNo(BANK0[1]), 
;;
;; FillUpResponse@confirmationCode	PTR unsigned char  size(1) Largest target is 1
;;		 -> AddUserC@confirmationCode(BANK0[1]), AddUserB@confirmationCode(BANK0[1]), AddUserA@confirmationCode(BANK0[1]), EraseAllUsers@confirmationCode(BANK0[1]), 
;;		 -> HiSpeedScan@confirmationCode(BANK0[1]), MatchTemplate@confirmationCode(COMMON[1]), LoadFingerTemplate@confirmationCode(COMMON[1]), GenCharacterFileFromImage@confirmationCode(BANK0[1]), 
;;		 -> ScanForImage@confirmationCode(BANK0[1]), VerifyPswd@confirmationCode(BANK0[1]), DeleteUser@confirmationCode(BANK0[1]), 
;;
;; FillUpResponse@data	PTR unsigned char  size(1) Largest target is 5
;;		 -> AddUserC@dataOut(BANK0[1]), AddUserB@dataOut(BANK0[1]), AddUserA@dataOut(BANK0[1]), EraseAllUsers@dataOut(BANK0[1]), 
;;		 -> HiSpeedScan@dataOut(BANK0[5]), MatchTemplate@dataOut(COMMON[1]), LoadFingerTemplate@dataOut(COMMON[1]), GenCharacterFileFromImage@dataOut(BANK0[1]), 
;;		 -> ScanForImage@dataOut(BANK0[1]), VerifyPswd@dataOut(BANK0[1]), DeleteUser@dataOut(BANK0[1]), 
;;
;; FillUpResponse@respPtr	PTR unsigned char  size(1) Largest target is 12
;;		 -> FillUpResponse@_Response(BANK0[12]), 
;;
;; sendPackage@content	PTR unsigned char  size(1) Largest target is 5
;;		 -> AddUserC@contentData(BANK0[4]), AddUserB@contentData(BANK0[1]), AddUserA@contentData(BANK0[1]), EraseAllUsers@contentData(BANK0[1]), 
;;		 -> HiSpeedScan@contentData(BANK0[5]), MatchTemplate@contentData(COMMON[1]), LoadFingerTemplate@contentData(COMMON[3]), GenCharacterFileFromImage@contentData(BANK0[1]), 
;;		 -> ScanForImage@contentData(BANK0[1]), DefModulePassword(BANK1[4]), DeleteUser@contentData(BANK0[4]), 
;;
;; S3950Package$Content	PTR unsigned char  size(1) Largest target is 5
;;		 -> AddUserC@contentData(BANK0[4]), AddUserB@contentData(BANK0[1]), AddUserA@contentData(BANK0[1]), EraseAllUsers@contentData(BANK0[1]), 
;;		 -> HiSpeedScan@contentData(BANK0[5]), MatchTemplate@contentData(COMMON[1]), LoadFingerTemplate@contentData(COMMON[3]), GenCharacterFileFromImage@contentData(BANK0[1]), 
;;		 -> ScanForImage@contentData(BANK0[1]), DefModulePassword(BANK1[4]), DeleteUser@contentData(BANK0[4]), 
;;
;; _Package.Content	PTR unsigned char  size(1) Largest target is 5
;;		 -> AddUserC@contentData(BANK0[4]), AddUserB@contentData(BANK0[1]), AddUserA@contentData(BANK0[1]), EraseAllUsers@contentData(BANK0[1]), 
;;		 -> HiSpeedScan@contentData(BANK0[5]), MatchTemplate@contentData(COMMON[1]), LoadFingerTemplate@contentData(COMMON[3]), GenCharacterFileFromImage@contentData(BANK0[1]), 
;;		 -> ScanForImage@contentData(BANK0[1]), DefModulePassword(BANK1[4]), DeleteUser@contentData(BANK0[4]), 
;;
;; menu@s	PTR const unsigned char  size(2) Largest target is 33
;;		 -> STR_37(CODE[29]), STR_36(CODE[33]), STR_35(CODE[26]), STR_34(CODE[30]), 
;;		 -> STR_33(CODE[30]), 
;;
;; LcdPrint@s	PTR const unsigned char  size(2) Largest target is 36
;;		 -> STR_37(CODE[29]), STR_36(CODE[33]), STR_35(CODE[26]), STR_34(CODE[30]), 
;;		 -> STR_33(CODE[30]), STR_32(CODE[8]), STR_31(CODE[18]), STR_30(CODE[20]), 
;;		 -> STR_29(CODE[14]), STR_28(CODE[22]), STR_27(CODE[19]), DeleteUserAfterAdminConfirm@buff(BANK1[10]), 
;;		 -> STR_26(CODE[12]), STR_25(CODE[12]), STR_24(CODE[28]), STR_23(CODE[20]), 
;;		 -> STR_22(CODE[24]), AddNewUserAfterAdminConfirm@buff_2228(BANK1[10]), STR_21(CODE[21]), STR_20(CODE[22]), 
;;		 -> STR_19(CODE[19]), AddNewUserAfterAdminConfirm@buff(BANK1[5]), STR_18(CODE[12]), STR_17(CODE[18]), 
;;		 -> STR_16(CODE[12]), STR_15(CODE[28]), STR_14(CODE[25]), STR_13(CODE[20]), 
;;		 -> STR_12(CODE[13]), STR_11(CODE[24]), STR_10(CODE[18]), STR_9(CODE[20]), 
;;		 -> STR_8(CODE[14]), STR_7(CODE[12]), STR_6(CODE[28]), UserNoArr(CODE[36]), 
;;		 -> STR_5(CODE[13]), STR_4(CODE[19]), STR_3(CODE[18]), STR_2(CODE[12]), 
;;		 -> STR_1(CODE[28]), 
;;


;;
;; Critical Paths under _main in COMMON
;;
;;   None.
;;
;; Critical Paths under _isr in COMMON
;;
;;   _isr->_PutUartByte
;;
;; Critical Paths under _main in BANK0
;;
;;   _main->_EraseAllUsersAfterAdminConfirm
;;   _DeleteUserAfterAdminConfirm->_HiSpeedScan0
;;   _AddNewUserAfterAdminConfirm->_HiSpeedScan0
;;   _AlterAdminUser->_HiSpeedScan0
;;   _ControlAccess->_HiSpeedScan0
;;   _EraseAllUsersAfterAdminConfirm->_HiSpeedScan0
;;   _menu->_LcdPrint
;;   _AddNewUser->_AddUserC
;;   _HiSpeedScan0->_HiSpeedScan
;;   _AddUserC->_FillUpResponse
;;   _AddUserB->_FillUpResponse
;;   _AddUserA->_FillUpResponse
;;   _HiSpeedScan->_FillUpResponse
;;   _GenCharacterFileFromImage->_FillUpResponse
;;   _ScanForImage->_FillUpResponse
;;   _VerifyPswd->_FillUpResponse
;;   _DeleteUser->_FillUpResponse
;;   _EraseAllUsers->_FillUpResponse
;;   _LcdPrint->_UploadLcdBuffer
;;   _sendPackage->_SendUartValue
;;   _DecToStr->_TotDigits
;;   _KeyScan->_PutKey
;;   _UploadLcdBuffer->_SendByte
;;   _LcdClear->_memset1
;;   _TotDigits->___lldiv
;;   _reserveEElocation->_ee_write
;;   _FillUpResponse->_ToggleEndianFormat
;;   _SendUartValue->_SendUartByte
;;   _releaseEElocation->_ee_write
;;   _PutKey->_LcdDelay
;;   _ee_eraseNPos->_ee_write
;;   _Delay->___lmul
;;   _SendByte->_LcdDelay
;;   _ee_write->_ee_read
;;
;; Critical Paths under _isr in BANK0
;;
;;   None.
;;
;; Critical Paths under _main in BANK1
;;
;;   _main->_AddNewUserAfterAdminConfirm
;;
;; Critical Paths under _isr in BANK1
;;
;;   None.
;;
;; Critical Paths under _main in BANK3
;;
;;   None.
;;
;; Critical Paths under _isr in BANK3
;;
;;   None.
;;
;; Critical Paths under _main in BANK2
;;
;;   None.
;;
;; Critical Paths under _isr in BANK2
;;
;;   None.

;;
;;Main: autosize = 0, tempsize = 1, incstack = 0, save=0
;;

;;
;;Call Graph Tables:
;;
;; ---------------------------------------------------------------------------------
;; (Depth) Function   	        Calls       Base Space   Used Autos Params    Refs
;; ---------------------------------------------------------------------------------
;; (0) _main                                                 2     2      0   92612
;;                                             79 BANK0      1     1      0
;;                                             28 BANK1      1     1      0
;;                            _LcdInit
;;                              _Delay
;;                           _LcdPrint
;;                           _UartInit
;;                         _VerifyPswd
;;                               _menu
;;                      _ControlAccess
;;                     _AlterAdminUser
;;        _AddNewUserAfterAdminConfirm
;;     _EraseAllUsersAfterAdminConfirm
;;        _DeleteUserAfterAdminConfirm
;; ---------------------------------------------------------------------------------
;; (1) _DeleteUserAfterAdminConfirm                         17    17      0   14436
;;                                             75 BANK0      2     2      0
;;                                              0 BANK1     15    15      0
;;                            _ee_read
;;                           _LcdClear
;;                           _LcdPrint
;;                       _HiSpeedScan0
;;                              _Delay
;;                             _PutKey
;;                            _KeyScan
;;                       _IsKeyPending
;;                             _GetKey
;;                             ___bmul
;;                         _DeleteUser
;;                            _memset1
;;                           _DecToStr
;;                  _releaseEElocation
;; ---------------------------------------------------------------------------------
;; (1) _AddNewUserAfterAdminConfirm                         28    28      0   24822
;;                                              0 BANK1     28    28      0
;;                            _ee_read
;;                           _LcdClear
;;                           _LcdPrint
;;                       _HiSpeedScan0
;;                              _Delay
;;                             _PutKey
;;                            _KeyScan
;;                       _IsKeyPending
;;                             _GetKey
;;                             ___bmul
;;                         _AddNewUser
;;                           _DecToStr
;; ---------------------------------------------------------------------------------
;; (1) _AlterAdminUser                                       7     7      0   25309
;;                                             75 BANK0      2     2      0
;;                                              0 BANK1      5     5      0
;;                            _ee_read
;;                           _LcdClear
;;                           _LcdPrint
;;                       _HiSpeedScan0
;;                              _Delay
;;                         _DeleteUser
;;                         _AddNewUser
;; ---------------------------------------------------------------------------------
;; (1) _ControlAccess                                       11    11      0   10480
;;                                             75 BANK0      3     3      0
;;                                              0 BANK1      8     8      0
;;                           _LcdClear
;;                           _LcdPrint
;;                            _memset1
;;                       _HiSpeedScan0
;;                            ___awdiv
;;                             ___bmul
;;                              _Delay
;; ---------------------------------------------------------------------------------
;; (1) _EraseAllUsersAfterAdminConfirm                       4     4      0   12062
;;                                             75 BANK0      4     4      0
;;                            _ee_read
;;                           _LcdClear
;;                           _LcdPrint
;;                       _HiSpeedScan0
;;                              _Delay
;;                      _EraseAllUsers
;;                       _ee_eraseNPos
;;                           _ee_write
;; ---------------------------------------------------------------------------------
;; (1) _menu                                                 4     2      2    1203
;;                                             19 BANK0      4     2      2
;;                           _LcdClear
;;                           _LcdPrint
;;                            _KeyScan
;;                       _IsKeyPending
;;                             _GetKey
;; ---------------------------------------------------------------------------------
;; (2) _AddNewUser                                           3     3      0   13247
;;                                             67 BANK0      3     3      0
;;                            _KeyScan
;;                       _IsKeyPending
;;                             _GetKey
;;                       _ScanForImage
;;          _GenCharacterFileFromImage
;;                           _AddUserA
;;                           _AddUserB
;;                           _AddUserC
;;                  _reserveEElocation
;; ---------------------------------------------------------------------------------
;; (2) _HiSpeedScan0                                         3     3      0    7930
;;                                             72 BANK0      3     3      0
;;                            _KeyScan
;;                       _IsKeyPending
;;                             _GetKey
;;                       _ScanForImage
;;          _GenCharacterFileFromImage
;;                        _HiSpeedScan
;; ---------------------------------------------------------------------------------
;; (3) _AddUserC                                            10    10      0    2598
;;                                             57 BANK0     10    10      0
;;                    _ClearUartBuffer
;;                        _sendPackage
;;                     _FillUpResponse
;; ---------------------------------------------------------------------------------
;; (3) _AddUserB                                             6     6      0    2530
;;                                             57 BANK0      6     6      0
;;                    _ClearUartBuffer
;;                        _sendPackage
;;                     _FillUpResponse
;; ---------------------------------------------------------------------------------
;; (3) _AddUserA                                             6     6      0    2530
;;                                             57 BANK0      6     6      0
;;                    _ClearUartBuffer
;;                        _sendPackage
;;                     _FillUpResponse
;; ---------------------------------------------------------------------------------
;; (3) _HiSpeedScan                                         15    15      0    2626
;;                                             57 BANK0     15    15      0
;;                    _ClearUartBuffer
;;                        _sendPackage
;;                     _FillUpResponse
;; ---------------------------------------------------------------------------------
;; (3) _GenCharacterFileFromImage                            6     6      0    2530
;;                                             57 BANK0      6     6      0
;;                    _ClearUartBuffer
;;                        _sendPackage
;;                     _FillUpResponse
;; ---------------------------------------------------------------------------------
;; (3) _ScanForImage                                         5     5      0    2530
;;                                             57 BANK0      5     5      0
;;                    _ClearUartBuffer
;;                        _sendPackage
;;                     _FillUpResponse
;; ---------------------------------------------------------------------------------
;; (1) _VerifyPswd                                           5     5      0    2490
;;                                             57 BANK0      5     5      0
;;                    _ClearUartBuffer
;;                        _sendPackage
;;                     _FillUpResponse
;; ---------------------------------------------------------------------------------
;; (2) _DeleteUser                                          10    10      0    2598
;;                                             57 BANK0     10    10      0
;;                    _ClearUartBuffer
;;                        _sendPackage
;;                     _FillUpResponse
;; ---------------------------------------------------------------------------------
;; (2) _EraseAllUsers                                        6     6      0    2530
;;                                             57 BANK0      6     6      0
;;                    _ClearUartBuffer
;;                        _sendPackage
;;                     _FillUpResponse
;; ---------------------------------------------------------------------------------
;; (2) _LcdPrint                                             8     4      4     616
;;                                             11 BANK0      8     4      4
;;                    _UploadLcdBuffer
;;                             ___bmul (ARG)
;; ---------------------------------------------------------------------------------
;; (1) _LcdInit                                              1     1      0     445
;;                                              8 BANK0      1     1      0
;;                           _LcdDelay
;;                           _SendByte
;;                           _LcdClear
;; ---------------------------------------------------------------------------------
;; (3) _sendPackage                                         14    11      3     508
;;                                             11 BANK0     14    11      3
;;                      _SendUartValue
;;                       _SendUartByte
;; ---------------------------------------------------------------------------------
;; (2) _DecToStr                                             9     3      6    1172
;;                                             20 BANK0      9     3      6
;;                          _TotDigits
;;                            ___llmod
;;                            ___lldiv
;; ---------------------------------------------------------------------------------
;; (2) _KeyScan                                              2     2      0     142
;;                                              4 BANK0      2     2      0
;;                             _PutKey
;; ---------------------------------------------------------------------------------
;; (3) _UploadLcdBuffer                                      6     6      0     359
;;                                              5 BANK0      6     6      0
;;                           _SendByte
;; ---------------------------------------------------------------------------------
;; (2) _LcdClear                                             0     0      0     250
;;                            _memset1
;;                           _SendByte
;; ---------------------------------------------------------------------------------
;; (3) _TotDigits                                            6     2      4     343
;;                                             14 BANK0      6     2      4
;;                            ___lldiv
;; ---------------------------------------------------------------------------------
;; (3) _reserveEElocation                                    2     2      0     220
;;                                              5 BANK0      2     2      0
;;                           _ee_write
;;                            _ee_read
;; ---------------------------------------------------------------------------------
;; (3) _FillUpResponse                                      34    33      1    1772
;;                                             23 BANK0     34    33      1
;;                            _memset1
;;                  _IsUartBytePending
;;                        _GetUartByte
;;                 _ToggleEndianFormat
;; ---------------------------------------------------------------------------------
;; (4) _SendUartValue                                       10     5      5     251
;;                                              1 BANK0     10     5      5
;;                       _SendUartByte
;; ---------------------------------------------------------------------------------
;; (2) _releaseEElocation                                    2     2      0     220
;;                                              5 BANK0      2     2      0
;;                           _ee_write
;;                            _ee_read
;; ---------------------------------------------------------------------------------
;; (3) _PutKey                                               2     2      0      65
;;                                              2 BANK0      2     2      0
;;                           _LcdDelay
;; ---------------------------------------------------------------------------------
;; (2) _ee_eraseNPos                                         3     3      0     164
;;                                              5 BANK0      3     3      0
;;                           _ee_write
;; ---------------------------------------------------------------------------------
;; (2) _Delay                                               10     8      2     235
;;                                             13 BANK0     10     8      2
;;                             ___lmul
;; ---------------------------------------------------------------------------------
;; (4) _SendByte                                             3     2      1     161
;;                                              2 BANK0      3     2      1
;;                           _LcdDelay
;; ---------------------------------------------------------------------------------
;; (3) ___lldiv                                             14     6      8     241
;;                                              0 BANK0     14     6      8
;; ---------------------------------------------------------------------------------
;; (3) ___llmod                                             10     2      8     232
;;                                              0 BANK0     10     2      8
;; ---------------------------------------------------------------------------------
;; (2) ___awdiv                                              9     5      4     445
;;                                              0 BANK0      9     5      4
;; ---------------------------------------------------------------------------------
;; (3) ___lmul                                              13     5      8     136
;;                                              0 BANK0     13     5      8
;; ---------------------------------------------------------------------------------
;; (2) ___bmul                                               4     3      1     136
;;                                              0 BANK0      4     3      1
;; ---------------------------------------------------------------------------------
;; (4) _ToggleEndianFormat                                  23    18      5     266
;;                                              0 BANK0     23    18      5
;; ---------------------------------------------------------------------------------
;; (4) _GetUartByte                                          2     2      0      34
;;                                              0 BANK0      2     2      0
;; ---------------------------------------------------------------------------------
;; (4) _IsUartBytePending                                    0     0      0       0
;; ---------------------------------------------------------------------------------
;; (3) _ClearUartBuffer                                      2     2      0      99
;;                                              0 BANK0      2     2      0
;; ---------------------------------------------------------------------------------
;; (4) _SendUartByte                                         1     1      0      31
;;                                              0 BANK0      1     1      0
;; ---------------------------------------------------------------------------------
;; (1) _UartInit                                             0     0      0       0
;; ---------------------------------------------------------------------------------
;; (2) _GetKey                                               2     2      0      34
;;                                              0 BANK0      2     2      0
;; ---------------------------------------------------------------------------------
;; (2) _IsKeyPending                                         0     0      0       0
;; ---------------------------------------------------------------------------------
;; (3) _ee_write                                             2     1      1      62
;;                                              3 BANK0      2     1      1
;;                            _ee_read (ARG)
;; ---------------------------------------------------------------------------------
;; (3) _ee_read                                              3     3      0      65
;;                                              0 BANK0      3     3      0
;; ---------------------------------------------------------------------------------
;; (2) _memset1                                              8     3      5      89
;;                                              0 BANK0      8     3      5
;; ---------------------------------------------------------------------------------
;; (4) _LcdDelay                                             2     0      2      34
;;                                              0 BANK0      2     0      2
;; ---------------------------------------------------------------------------------
;; Estimated maximum stack depth 4
;; ---------------------------------------------------------------------------------
;; (Depth) Function   	        Calls       Base Space   Used Autos Params    Refs
;; ---------------------------------------------------------------------------------
;; (7) _isr                                                  4     4      0      22
;;                                              2 COMMON     4     4      0
;;                        _PutUartByte
;; ---------------------------------------------------------------------------------
;; (8) _PutUartByte                                          2     2      0      22
;;                                              0 COMMON     2     2      0
;; ---------------------------------------------------------------------------------
;; Estimated maximum stack depth 8
;; ---------------------------------------------------------------------------------

;; Call Graph Graphs:

;; _main (ROOT)
;;   _LcdInit
;;     _LcdDelay
;;     _SendByte
;;       _LcdDelay
;;     _LcdClear
;;       _memset1
;;       _SendByte
;;         _LcdDelay
;;   _Delay
;;     ___lmul
;;   _LcdPrint
;;     _UploadLcdBuffer
;;       _SendByte
;;         _LcdDelay
;;     ___bmul (ARG)
;;   _UartInit
;;   _VerifyPswd
;;     _ClearUartBuffer
;;     _sendPackage
;;       _SendUartValue
;;         _SendUartByte
;;       _SendUartByte
;;     _FillUpResponse
;;       _memset1
;;       _IsUartBytePending
;;       _GetUartByte
;;       _ToggleEndianFormat
;;   _menu
;;     _LcdClear
;;       _memset1
;;       _SendByte
;;         _LcdDelay
;;     _LcdPrint
;;       _UploadLcdBuffer
;;         _SendByte
;;           _LcdDelay
;;       ___bmul (ARG)
;;     _KeyScan
;;       _PutKey
;;         _LcdDelay
;;     _IsKeyPending
;;     _GetKey
;;   _ControlAccess
;;     _LcdClear
;;       _memset1
;;       _SendByte
;;         _LcdDelay
;;     _LcdPrint
;;       _UploadLcdBuffer
;;         _SendByte
;;           _LcdDelay
;;       ___bmul (ARG)
;;     _memset1
;;     _HiSpeedScan0
;;       _KeyScan
;;         _PutKey
;;           _LcdDelay
;;       _IsKeyPending
;;       _GetKey
;;       _ScanForImage
;;         _ClearUartBuffer
;;         _sendPackage
;;           _SendUartValue
;;             _SendUartByte
;;           _SendUartByte
;;         _FillUpResponse
;;           _memset1
;;           _IsUartBytePending
;;           _GetUartByte
;;           _ToggleEndianFormat
;;       _GenCharacterFileFromImage
;;         _ClearUartBuffer
;;         _sendPackage
;;           _SendUartValue
;;             _SendUartByte
;;           _SendUartByte
;;         _FillUpResponse
;;           _memset1
;;           _IsUartBytePending
;;           _GetUartByte
;;           _ToggleEndianFormat
;;       _HiSpeedScan
;;         _ClearUartBuffer
;;         _sendPackage
;;           _SendUartValue
;;             _SendUartByte
;;           _SendUartByte
;;         _FillUpResponse
;;           _memset1
;;           _IsUartBytePending
;;           _GetUartByte
;;           _ToggleEndianFormat
;;     ___awdiv
;;     ___bmul
;;     _Delay
;;       ___lmul
;;   _AlterAdminUser
;;     _ee_read
;;     _LcdClear
;;       _memset1
;;       _SendByte
;;         _LcdDelay
;;     _LcdPrint
;;       _UploadLcdBuffer
;;         _SendByte
;;           _LcdDelay
;;       ___bmul (ARG)
;;     _HiSpeedScan0
;;       _KeyScan
;;         _PutKey
;;           _LcdDelay
;;       _IsKeyPending
;;       _GetKey
;;       _ScanForImage
;;         _ClearUartBuffer
;;         _sendPackage
;;           _SendUartValue
;;             _SendUartByte
;;           _SendUartByte
;;         _FillUpResponse
;;           _memset1
;;           _IsUartBytePending
;;           _GetUartByte
;;           _ToggleEndianFormat
;;       _GenCharacterFileFromImage
;;         _ClearUartBuffer
;;         _sendPackage
;;           _SendUartValue
;;             _SendUartByte
;;           _SendUartByte
;;         _FillUpResponse
;;           _memset1
;;           _IsUartBytePending
;;           _GetUartByte
;;           _ToggleEndianFormat
;;       _HiSpeedScan
;;         _ClearUartBuffer
;;         _sendPackage
;;           _SendUartValue
;;             _SendUartByte
;;           _SendUartByte
;;         _FillUpResponse
;;           _memset1
;;           _IsUartBytePending
;;           _GetUartByte
;;           _ToggleEndianFormat
;;     _Delay
;;       ___lmul
;;     _DeleteUser
;;       _ClearUartBuffer
;;       _sendPackage
;;         _SendUartValue
;;           _SendUartByte
;;         _SendUartByte
;;       _FillUpResponse
;;         _memset1
;;         _IsUartBytePending
;;         _GetUartByte
;;         _ToggleEndianFormat
;;     _AddNewUser
;;       _KeyScan
;;         _PutKey
;;           _LcdDelay
;;       _IsKeyPending
;;       _GetKey
;;       _ScanForImage
;;         _ClearUartBuffer
;;         _sendPackage
;;           _SendUartValue
;;             _SendUartByte
;;           _SendUartByte
;;         _FillUpResponse
;;           _memset1
;;           _IsUartBytePending
;;           _GetUartByte
;;           _ToggleEndianFormat
;;       _GenCharacterFileFromImage
;;         _ClearUartBuffer
;;         _sendPackage
;;           _SendUartValue
;;             _SendUartByte
;;           _SendUartByte
;;         _FillUpResponse
;;           _memset1
;;           _IsUartBytePending
;;           _GetUartByte
;;           _ToggleEndianFormat
;;       _AddUserA
;;         _ClearUartBuffer
;;         _sendPackage
;;           _SendUartValue
;;             _SendUartByte
;;           _SendUartByte
;;         _FillUpResponse
;;           _memset1
;;           _IsUartBytePending
;;           _GetUartByte
;;           _ToggleEndianFormat
;;       _AddUserB
;;         _ClearUartBuffer
;;         _sendPackage
;;           _SendUartValue
;;             _SendUartByte
;;           _SendUartByte
;;         _FillUpResponse
;;           _memset1
;;           _IsUartBytePending
;;           _GetUartByte
;;           _ToggleEndianFormat
;;       _AddUserC
;;         _ClearUartBuffer
;;         _sendPackage
;;           _SendUartValue
;;             _SendUartByte
;;           _SendUartByte
;;         _FillUpResponse
;;           _memset1
;;           _IsUartBytePending
;;           _GetUartByte
;;           _ToggleEndianFormat
;;       _reserveEElocation
;;         _ee_write
;;           _ee_read (ARG)
;;         _ee_read
;;   _AddNewUserAfterAdminConfirm
;;     _ee_read
;;     _LcdClear
;;       _memset1
;;       _SendByte
;;         _LcdDelay
;;     _LcdPrint
;;       _UploadLcdBuffer
;;         _SendByte
;;           _LcdDelay
;;       ___bmul (ARG)
;;     _HiSpeedScan0
;;       _KeyScan
;;         _PutKey
;;           _LcdDelay
;;       _IsKeyPending
;;       _GetKey
;;       _ScanForImage
;;         _ClearUartBuffer
;;         _sendPackage
;;           _SendUartValue
;;             _SendUartByte
;;           _SendUartByte
;;         _FillUpResponse
;;           _memset1
;;           _IsUartBytePending
;;           _GetUartByte
;;           _ToggleEndianFormat
;;       _GenCharacterFileFromImage
;;         _ClearUartBuffer
;;         _sendPackage
;;           _SendUartValue
;;             _SendUartByte
;;           _SendUartByte
;;         _FillUpResponse
;;           _memset1
;;           _IsUartBytePending
;;           _GetUartByte
;;           _ToggleEndianFormat
;;       _HiSpeedScan
;;         _ClearUartBuffer
;;         _sendPackage
;;           _SendUartValue
;;             _SendUartByte
;;           _SendUartByte
;;         _FillUpResponse
;;           _memset1
;;           _IsUartBytePending
;;           _GetUartByte
;;           _ToggleEndianFormat
;;     _Delay
;;       ___lmul
;;     _PutKey
;;       _LcdDelay
;;     _KeyScan
;;       _PutKey
;;         _LcdDelay
;;     _IsKeyPending
;;     _GetKey
;;     ___bmul
;;     _AddNewUser
;;       _KeyScan
;;         _PutKey
;;           _LcdDelay
;;       _IsKeyPending
;;       _GetKey
;;       _ScanForImage
;;         _ClearUartBuffer
;;         _sendPackage
;;           _SendUartValue
;;             _SendUartByte
;;           _SendUartByte
;;         _FillUpResponse
;;           _memset1
;;           _IsUartBytePending
;;           _GetUartByte
;;           _ToggleEndianFormat
;;       _GenCharacterFileFromImage
;;         _ClearUartBuffer
;;         _sendPackage
;;           _SendUartValue
;;             _SendUartByte
;;           _SendUartByte
;;         _FillUpResponse
;;           _memset1
;;           _IsUartBytePending
;;           _GetUartByte
;;           _ToggleEndianFormat
;;       _AddUserA
;;         _ClearUartBuffer
;;         _sendPackage
;;           _SendUartValue
;;             _SendUartByte
;;           _SendUartByte
;;         _FillUpResponse
;;           _memset1
;;           _IsUartBytePending
;;           _GetUartByte
;;           _ToggleEndianFormat
;;       _AddUserB
;;         _ClearUartBuffer
;;         _sendPackage
;;           _SendUartValue
;;             _SendUartByte
;;           _SendUartByte
;;         _FillUpResponse
;;           _memset1
;;           _IsUartBytePending
;;           _GetUartByte
;;           _ToggleEndianFormat
;;       _AddUserC
;;         _ClearUartBuffer
;;         _sendPackage
;;           _SendUartValue
;;             _SendUartByte
;;           _SendUartByte
;;         _FillUpResponse
;;           _memset1
;;           _IsUartBytePending
;;           _GetUartByte
;;           _ToggleEndianFormat
;;       _reserveEElocation
;;         _ee_write
;;           _ee_read (ARG)
;;         _ee_read
;;     _DecToStr
;;       _TotDigits
;;         ___lldiv
;;       ___llmod
;;       ___lldiv
;;   _EraseAllUsersAfterAdminConfirm
;;     _ee_read
;;     _LcdClear
;;       _memset1
;;       _SendByte
;;         _LcdDelay
;;     _LcdPrint
;;       _UploadLcdBuffer
;;         _SendByte
;;           _LcdDelay
;;       ___bmul (ARG)
;;     _HiSpeedScan0
;;       _KeyScan
;;         _PutKey
;;           _LcdDelay
;;       _IsKeyPending
;;       _GetKey
;;       _ScanForImage
;;         _ClearUartBuffer
;;         _sendPackage
;;           _SendUartValue
;;             _SendUartByte
;;           _SendUartByte
;;         _FillUpResponse
;;           _memset1
;;           _IsUartBytePending
;;           _GetUartByte
;;           _ToggleEndianFormat
;;       _GenCharacterFileFromImage
;;         _ClearUartBuffer
;;         _sendPackage
;;           _SendUartValue
;;             _SendUartByte
;;           _SendUartByte
;;         _FillUpResponse
;;           _memset1
;;           _IsUartBytePending
;;           _GetUartByte
;;           _ToggleEndianFormat
;;       _HiSpeedScan
;;         _ClearUartBuffer
;;         _sendPackage
;;           _SendUartValue
;;             _SendUartByte
;;           _SendUartByte
;;         _FillUpResponse
;;           _memset1
;;           _IsUartBytePending
;;           _GetUartByte
;;           _ToggleEndianFormat
;;     _Delay
;;       ___lmul
;;     _EraseAllUsers
;;       _ClearUartBuffer
;;       _sendPackage
;;         _SendUartValue
;;           _SendUartByte
;;         _SendUartByte
;;       _FillUpResponse
;;         _memset1
;;         _IsUartBytePending
;;         _GetUartByte
;;         _ToggleEndianFormat
;;     _ee_eraseNPos
;;       _ee_write
;;         _ee_read (ARG)
;;     _ee_write
;;       _ee_read (ARG)
;;   _DeleteUserAfterAdminConfirm
;;     _ee_read
;;     _LcdClear
;;       _memset1
;;       _SendByte
;;         _LcdDelay
;;     _LcdPrint
;;       _UploadLcdBuffer
;;         _SendByte
;;           _LcdDelay
;;       ___bmul (ARG)
;;     _HiSpeedScan0
;;       _KeyScan
;;         _PutKey
;;           _LcdDelay
;;       _IsKeyPending
;;       _GetKey
;;       _ScanForImage
;;         _ClearUartBuffer
;;         _sendPackage
;;           _SendUartValue
;;             _SendUartByte
;;           _SendUartByte
;;         _FillUpResponse
;;           _memset1
;;           _IsUartBytePending
;;           _GetUartByte
;;           _ToggleEndianFormat
;;       _GenCharacterFileFromImage
;;         _ClearUartBuffer
;;         _sendPackage
;;           _SendUartValue
;;             _SendUartByte
;;           _SendUartByte
;;         _FillUpResponse
;;           _memset1
;;           _IsUartBytePending
;;           _GetUartByte
;;           _ToggleEndianFormat
;;       _HiSpeedScan
;;         _ClearUartBuffer
;;         _sendPackage
;;           _SendUartValue
;;             _SendUartByte
;;           _SendUartByte
;;         _FillUpResponse
;;           _memset1
;;           _IsUartBytePending
;;           _GetUartByte
;;           _ToggleEndianFormat
;;     _Delay
;;       ___lmul
;;     _PutKey
;;       _LcdDelay
;;     _KeyScan
;;       _PutKey
;;         _LcdDelay
;;     _IsKeyPending
;;     _GetKey
;;     ___bmul
;;     _DeleteUser
;;       _ClearUartBuffer
;;       _sendPackage
;;         _SendUartValue
;;           _SendUartByte
;;         _SendUartByte
;;       _FillUpResponse
;;         _memset1
;;         _IsUartBytePending
;;         _GetUartByte
;;         _ToggleEndianFormat
;;     _memset1
;;     _DecToStr
;;       _TotDigits
;;         ___lldiv
;;       ___llmod
;;       ___lldiv
;;     _releaseEElocation
;;       _ee_write
;;         _ee_read (ARG)
;;       _ee_read
;;
;; _isr (ROOT)
;;   _PutUartByte
;;

;; Address spaces:

;;Name               Size   Autos  Total    Cost      Usage
;;BANK3               55      0      3E       9       72.9%
;;BITBANK3            55      0       0       8        0.0%
;;SFR3                 0      0       0       4        0.0%
;;BITSFR3              0      0       0       4        0.0%
;;BANK2               60      0      38      11       58.3%
;;BITBANK2            60      0       0      10        0.0%
;;SFR2                 0      0       0       5        0.0%
;;BITSFR2              0      0       0       5        0.0%
;;SFR1                 0      0       0       2        0.0%
;;BITSFR1              0      0       0       2        0.0%
;;BANK1               50     1D      4F       7       98.8%
;;BITBANK1            50      0       0       6        0.0%
;;CODE                 0      0       0       0        0.0%
;;DATA                 0      0     12B      12        0.0%
;;ABS                  0      0     121       3        0.0%
;;NULL                 0      0       0       0        0.0%
;;STACK                0      0       A       2        0.0%
;;BANK0               50     50      50       5      100.0%
;;BITBANK0            50      0       0       4        0.0%
;;SFR0                 0      0       0       1        0.0%
;;BITSFR0              0      0       0       1        0.0%
;;COMMON               D      6       C       1       92.3%
;;BITCOMMON            D      0       0       0        0.0%
;;EEDATA             100      0       0       0        0.0%

	global	_main
psect	maintext,global,class=CODE,delta=2
global __pmaintext
__pmaintext:

;; *************** function _main *****************
;; Defined at:
;;		line 445 in file "C:\Users\GauravLT\Desktop\AccessControlBy4Users\AccessControlUsingFingerSense-master\AccessControlUsingFingerSense-master\PIC16F877A_R307\main.c"
;; Parameters:    Size  Location     Type
;;		None
;; Auto vars:     Size  Location     Type
;;  menuResponse    1   28[BANK1 ] unsigned char 
;; Return value:  Size  Location     Type
;;		None               void
;; Registers used:
;;		wreg, fsr0l, fsr0h, status,2, status,0, btemp+1, pclath, cstack
;; Tracked objects:
;;		On entry : 17F/0
;;		On exit  : 0/0
;;		Unchanged: 0/0
;; Data sizes:     COMMON   BANK0   BANK1   BANK3   BANK2
;;      Params:         0       0       0       0       0
;;      Locals:         0       0       1       0       0
;;      Temps:          0       1       0       0       0
;;      Totals:         0       1       1       0       0
;;Total ram usage:        2 bytes
;; Hardware stack levels required when called:    8
;; This function calls:
;;		_LcdInit
;;		_Delay
;;		_LcdPrint
;;		_UartInit
;;		_VerifyPswd
;;		_menu
;;		_ControlAccess
;;		_AlterAdminUser
;;		_AddNewUserAfterAdminConfirm
;;		_EraseAllUsersAfterAdminConfirm
;;		_DeleteUserAfterAdminConfirm
;; This function is called by:
;;		Startup code after reset
;; This function uses a non-reentrant model
;;
psect	maintext
	file	"C:\Users\GauravLT\Desktop\AccessControlBy4Users\AccessControlUsingFingerSense-master\AccessControlUsingFingerSense-master\PIC16F877A_R307\main.c"
	line	445
	global	__size_of_main
	__size_of_main	equ	__end_of_main-_main
	
_main:	
	opt	stack 0
; Regs used in _main: [wreg-fsr0h+status,2+status,0+btemp+1+pclath+cstack]
	line	446
	
l10216:	
;main.c: 446: unsigned char menuResponse=0xFF;
	movlw	(0FFh)
	bcf	status, 5	;RP0=0, select bank0
	bcf	status, 6	;RP1=0, select bank0
	movwf	(??_main+0)+0
	movf	(??_main+0)+0,w
	bsf	status, 5	;RP0=1, select bank1
	bcf	status, 6	;RP1=0, select bank1
	movwf	(main@menuResponse)^080h
	line	448
;main.c: 448: TRISC=0X8F;
	movlw	(08Fh)
	movwf	(135)^080h	;volatile
	line	449
	
l10218:	
;main.c: 449: LcdInit();
	fcall	_LcdInit
	line	450
	
l10220:	
;main.c: 450: RB5=0;
	bcf	status, 5	;RP0=0, select bank0
	bcf	status, 6	;RP1=0, select bank0
	bcf	(53/8),(53)&7
	line	451
	
l10222:	
;main.c: 451: RB1 = 0;
	bcf	(49/8),(49)&7
	line	452
	
l10224:	
;main.c: 452: Delay(1);
	movlw	low(01h)
	movwf	(?_Delay)
	movlw	high(01h)
	movwf	((?_Delay))+1
	fcall	_Delay
	line	453
	
l10226:	
;main.c: 453: LcdPrint("Welcome", 0,0);
	movlw	low(STR_32|8000h)
	bcf	status, 5	;RP0=0, select bank0
	bcf	status, 6	;RP1=0, select bank0
	movwf	(?_LcdPrint)
	movlw	high(STR_32|8000h)
	movwf	((?_LcdPrint))+1
	clrf	0+(?_LcdPrint)+02h
	clrf	0+(?_LcdPrint)+03h
	fcall	_LcdPrint
	line	454
	
l10228:	
;main.c: 454: Delay(2);
	movlw	low(02h)
	bcf	status, 5	;RP0=0, select bank0
	bcf	status, 6	;RP1=0, select bank0
	movwf	(?_Delay)
	movlw	high(02h)
	movwf	((?_Delay))+1
	fcall	_Delay
	line	455
	
l10230:	
;main.c: 455: UartInit();
	fcall	_UartInit
	line	457
	
l10232:	
;main.c: 457: VerifyPswd();
	fcall	_VerifyPswd
	goto	l10234
	line	462
;main.c: 462: while(1)
	
l1575:	
	line	464
	
l10234:	
;main.c: 463: {
;main.c: 464: menuResponse = menu("1 For Access\n2 For Alter User");
	movlw	low(STR_33|8000h)
	bcf	status, 5	;RP0=0, select bank0
	bcf	status, 6	;RP1=0, select bank0
	movwf	(?_menu)
	movlw	high(STR_33|8000h)
	movwf	((?_menu))+1
	fcall	_menu
	bcf	status, 5	;RP0=0, select bank0
	bcf	status, 6	;RP1=0, select bank0
	movwf	(??_main+0)+0
	movf	(??_main+0)+0,w
	bsf	status, 5	;RP0=1, select bank1
	bcf	status, 6	;RP1=0, select bank1
	movwf	(main@menuResponse)^080h
	line	465
	
l10236:	
;main.c: 465: if(menuResponse == '1') { ControlAccess();}
	movf	(main@menuResponse)^080h,w
	xorlw	031h
	skipz
	goto	u8631
	goto	u8630
u8631:
	goto	l10240
u8630:
	
l10238:	
	fcall	_ControlAccess
	goto	l10234
	line	466
	
l1576:	
	
l10240:	
;main.c: 466: else if(menuResponse == '2')
	bsf	status, 5	;RP0=1, select bank1
	bcf	status, 6	;RP1=0, select bank1
	movf	(main@menuResponse)^080h,w
	xorlw	032h
	skipz
	goto	u8641
	goto	u8640
u8641:
	goto	l10234
u8640:
	goto	l10242
	line	468
;main.c: 467: {
;main.c: 468: while(1)
	
l1579:	
	line	470
	
l10242:	
;main.c: 469: {
;main.c: 470: menuResponse = menu("1 Change Admin\n2 Add/Del User");
	movlw	low(STR_34|8000h)
	bcf	status, 5	;RP0=0, select bank0
	bcf	status, 6	;RP1=0, select bank0
	movwf	(?_menu)
	movlw	high(STR_34|8000h)
	movwf	((?_menu))+1
	fcall	_menu
	bcf	status, 5	;RP0=0, select bank0
	bcf	status, 6	;RP1=0, select bank0
	movwf	(??_main+0)+0
	movf	(??_main+0)+0,w
	bsf	status, 5	;RP0=1, select bank1
	bcf	status, 6	;RP1=0, select bank1
	movwf	(main@menuResponse)^080h
	line	471
	
l10244:	
;main.c: 471: if(menuResponse == '1')
	movf	(main@menuResponse)^080h,w
	xorlw	031h
	skipz
	goto	u8651
	goto	u8650
u8651:
	goto	l10260
u8650:
	goto	l10246
	line	473
;main.c: 472: {
;main.c: 473: while(1)
	
l1581:	
	line	475
	
l10246:	
;main.c: 474: {
;main.c: 475: menuResponse = menu("1 Admin - 00\n2 Admin - 01");
	movlw	low(STR_35|8000h)
	bcf	status, 5	;RP0=0, select bank0
	bcf	status, 6	;RP1=0, select bank0
	movwf	(?_menu)
	movlw	high(STR_35|8000h)
	movwf	((?_menu))+1
	fcall	_menu
	bcf	status, 5	;RP0=0, select bank0
	bcf	status, 6	;RP1=0, select bank0
	movwf	(??_main+0)+0
	movf	(??_main+0)+0,w
	bsf	status, 5	;RP0=1, select bank1
	bcf	status, 6	;RP1=0, select bank1
	movwf	(main@menuResponse)^080h
	line	476
	
l10248:	
;main.c: 476: if(menuResponse == '1'){AlterAdminUser(menuResponse);}
	movf	(main@menuResponse)^080h,w
	xorlw	031h
	skipz
	goto	u8661
	goto	u8660
u8661:
	goto	l10252
u8660:
	
l10250:	
	movf	(main@menuResponse)^080h,w
	fcall	_AlterAdminUser
	goto	l10246
	line	477
	
l1582:	
	
l10252:	
;main.c: 477: else if(menuResponse == '2'){AlterAdminUser(menuResponse);}
	bsf	status, 5	;RP0=1, select bank1
	bcf	status, 6	;RP1=0, select bank1
	movf	(main@menuResponse)^080h,w
	xorlw	032h
	skipz
	goto	u8671
	goto	u8670
u8671:
	goto	l10256
u8670:
	
l10254:	
	movf	(main@menuResponse)^080h,w
	fcall	_AlterAdminUser
	goto	l10246
	line	478
	
l1584:	
	
l10256:	
;main.c: 478: else if(menuResponse == '3')break;
	bsf	status, 5	;RP0=1, select bank1
	bcf	status, 6	;RP1=0, select bank1
	movf	(main@menuResponse)^080h,w
	xorlw	033h
	skipz
	goto	u8681
	goto	u8680
u8681:
	goto	l10246
u8680:
	goto	l10242
	
l10258:	
	goto	l10242
	
l1586:	
	goto	l10246
	line	479
	
l1585:	
	goto	l10246
	
l1583:	
	goto	l10246
	
l1588:	
	line	473
	goto	l10246
	
l1587:	
	line	480
;main.c: 479: }
;main.c: 480: }
	goto	l10242
	line	481
	
l1580:	
	
l10260:	
;main.c: 481: else if(menuResponse == '2')
	movf	(main@menuResponse)^080h,w
	xorlw	032h
	skipz
	goto	u8691
	goto	u8690
u8691:
	goto	l10288
u8690:
	goto	l10262
	line	483
;main.c: 482: {
;main.c: 483: while(1)
	
l1591:	
	line	485
	
l10262:	
;main.c: 484: {
;main.c: 485: menuResponse = menu("1 Add New User\n2 Delete Old User");
	movlw	low(STR_36|8000h)
	bcf	status, 5	;RP0=0, select bank0
	bcf	status, 6	;RP1=0, select bank0
	movwf	(?_menu)
	movlw	high(STR_36|8000h)
	movwf	((?_menu))+1
	fcall	_menu
	bcf	status, 5	;RP0=0, select bank0
	bcf	status, 6	;RP1=0, select bank0
	movwf	(??_main+0)+0
	movf	(??_main+0)+0,w
	bsf	status, 5	;RP0=1, select bank1
	bcf	status, 6	;RP1=0, select bank1
	movwf	(main@menuResponse)^080h
	line	486
	
l10264:	
;main.c: 486: if(menuResponse == '1'){AddNewUserAfterAdminConfirm();}
	movf	(main@menuResponse)^080h,w
	xorlw	031h
	skipz
	goto	u8701
	goto	u8700
u8701:
	goto	l10268
u8700:
	
l10266:	
	fcall	_AddNewUserAfterAdminConfirm
	goto	l10262
	line	487
	
l1592:	
	
l10268:	
;main.c: 487: else if(menuResponse == '2')
	bsf	status, 5	;RP0=1, select bank1
	bcf	status, 6	;RP1=0, select bank1
	movf	(main@menuResponse)^080h,w
	xorlw	032h
	skipz
	goto	u8711
	goto	u8710
u8711:
	goto	l10284
u8710:
	goto	l10270
	line	489
;main.c: 488: {
;main.c: 489: while(1)
	
l1595:	
	line	491
	
l10270:	
;main.c: 490: {
;main.c: 491: menuResponse = menu("1 Delete All\n2 Delete Single");
	movlw	low(STR_37|8000h)
	bcf	status, 5	;RP0=0, select bank0
	bcf	status, 6	;RP1=0, select bank0
	movwf	(?_menu)
	movlw	high(STR_37|8000h)
	movwf	((?_menu))+1
	fcall	_menu
	bcf	status, 5	;RP0=0, select bank0
	bcf	status, 6	;RP1=0, select bank0
	movwf	(??_main+0)+0
	movf	(??_main+0)+0,w
	bsf	status, 5	;RP0=1, select bank1
	bcf	status, 6	;RP1=0, select bank1
	movwf	(main@menuResponse)^080h
	line	492
	
l10272:	
;main.c: 492: if(menuResponse == '1'){EraseAllUsersAfterAdminConfirm();}
	movf	(main@menuResponse)^080h,w
	xorlw	031h
	skipz
	goto	u8721
	goto	u8720
u8721:
	goto	l10276
u8720:
	
l10274:	
	fcall	_EraseAllUsersAfterAdminConfirm
	goto	l10270
	line	493
	
l1596:	
	
l10276:	
;main.c: 493: else if(menuResponse == '2'){DeleteUserAfterAdminConfirm();}
	bsf	status, 5	;RP0=1, select bank1
	bcf	status, 6	;RP1=0, select bank1
	movf	(main@menuResponse)^080h,w
	xorlw	032h
	skipz
	goto	u8731
	goto	u8730
u8731:
	goto	l10280
u8730:
	
l10278:	
	fcall	_DeleteUserAfterAdminConfirm
	goto	l10270
	line	494
	
l1598:	
	
l10280:	
;main.c: 494: else if(menuResponse == '3')break;
	bsf	status, 5	;RP0=1, select bank1
	bcf	status, 6	;RP1=0, select bank1
	movf	(main@menuResponse)^080h,w
	xorlw	033h
	skipz
	goto	u8741
	goto	u8740
u8741:
	goto	l10270
u8740:
	goto	l10262
	
l10282:	
	goto	l10262
	
l1600:	
	goto	l10270
	line	495
	
l1599:	
	goto	l10270
	
l1597:	
	goto	l10270
	
l1602:	
	line	489
	goto	l10270
	
l1601:	
	line	496
;main.c: 495: }
;main.c: 496: }
	goto	l10262
	line	497
	
l1594:	
	
l10284:	
;main.c: 497: else if(menuResponse == '3')break;
	movf	(main@menuResponse)^080h,w
	xorlw	033h
	skipz
	goto	u8751
	goto	u8750
u8751:
	goto	l10262
u8750:
	goto	l10242
	
l10286:	
	goto	l10242
	
l1604:	
	goto	l10262
	line	498
	
l1603:	
	goto	l10262
	
l1593:	
	goto	l10262
	
l1606:	
	line	483
	goto	l10262
	
l1605:	
	line	499
;main.c: 498: }
;main.c: 499: }
	goto	l10242
	line	500
	
l1590:	
	
l10288:	
;main.c: 500: else if(menuResponse == '3')break;
	movf	(main@menuResponse)^080h,w
	xorlw	033h
	skipz
	goto	u8761
	goto	u8760
u8761:
	goto	l10242
u8760:
	goto	l10234
	
l10290:	
	goto	l10234
	
l1608:	
	goto	l10242
	line	501
	
l1607:	
	goto	l10242
	
l1589:	
	goto	l10242
	
l1610:	
	line	468
	goto	l10242
	
l1609:	
	goto	l10234
	line	502
	
l1578:	
	goto	l10234
	line	503
	
l1577:	
	goto	l10234
	
l1611:	
	line	462
	goto	l10234
	
l1612:	
	line	504
	
l1613:	
	global	start
	ljmp	start
	opt stack 0
GLOBAL	__end_of_main
	__end_of_main:
;; =============== function _main ends ============

	signat	_main,88
	global	_DeleteUserAfterAdminConfirm
psect	text1822,local,class=CODE,delta=2
global __ptext1822
__ptext1822:

;; *************** function _DeleteUserAfterAdminConfirm *****************
;; Defined at:
;;		line 307 in file "C:\Users\GauravLT\Desktop\AccessControlBy4Users\AccessControlUsingFingerSense-master\AccessControlUsingFingerSense-master\PIC16F877A_R307\main.c"
;; Parameters:    Size  Location     Type
;;		None
;; Auto vars:     Size  Location     Type
;;  key             1   13[BANK1 ] unsigned char 
;;  buff           10    0[BANK1 ] unsigned char [10]
;;  DelUserNo       1   14[BANK1 ] char 
;;  UserNo          1   12[BANK1 ] unsigned char 
;;  result          1   11[BANK1 ] unsigned char 
;;  isDeleteUser    1   10[BANK1 ] unsigned char 
;; Return value:  Size  Location     Type
;;                  1    wreg      unsigned char 
;; Registers used:
;;		wreg, fsr0l, fsr0h, status,2, status,0, btemp+1, pclath, cstack
;; Tracked objects:
;;		On entry : 0/0
;;		On exit  : 0/0
;;		Unchanged: 0/0
;; Data sizes:     COMMON   BANK0   BANK1   BANK3   BANK2
;;      Params:         0       0       0       0       0
;;      Locals:         0       0      15       0       0
;;      Temps:          0       2       0       0       0
;;      Totals:         0       2      15       0       0
;;Total ram usage:       17 bytes
;; Hardware stack levels used:    1
;; Hardware stack levels required when called:    7
;; This function calls:
;;		_ee_read
;;		_LcdClear
;;		_LcdPrint
;;		_HiSpeedScan0
;;		_Delay
;;		_PutKey
;;		_KeyScan
;;		_IsKeyPending
;;		_GetKey
;;		___bmul
;;		_DeleteUser
;;		_memset1
;;		_DecToStr
;;		_releaseEElocation
;; This function is called by:
;;		_main
;; This function uses a non-reentrant model
;;
psect	text1822
	file	"C:\Users\GauravLT\Desktop\AccessControlBy4Users\AccessControlUsingFingerSense-master\AccessControlUsingFingerSense-master\PIC16F877A_R307\main.c"
	line	307
	global	__size_of_DeleteUserAfterAdminConfirm
	__size_of_DeleteUserAfterAdminConfirm	equ	__end_of_DeleteUserAfterAdminConfirm-_DeleteUserAfterAdminConfirm
	
_DeleteUserAfterAdminConfirm:	
;; using string table level
	opt	stack 1
; Regs used in _DeleteUserAfterAdminConfirm: [wreg-fsr0h+status,2+status,0+btemp+1+pclath+cstack]
	line	308
	
l10102:	
;main.c: 308: unsigned char isDeleteUser=1,UserNo,result;
	bsf	status, 5	;RP0=1, select bank1
	bcf	status, 6	;RP1=0, select bank1
	clrf	(DeleteUserAfterAdminConfirm@isDeleteUser)^080h
	bsf	status,0
	rlf	(DeleteUserAfterAdminConfirm@isDeleteUser)^080h,f
	line	312
	
l10104:	
;main.c: 309: unsigned char buff[10];
;main.c: 310: signed char DelUserNo ;
;main.c: 312: if(ee_read(0x00) == 0x01)
	movlw	(0)
	fcall	_ee_read
	xorlw	01h
	skipz
	goto	u8471
	goto	u8470
u8471:
	goto	l1534
u8470:
	line	314
	
l10106:	
;main.c: 313: {
;main.c: 314: LcdClear();
	fcall	_LcdClear
	line	315
	
l10108:	
;main.c: 315: LcdPrint("Admin Required\nPlace Finger",0,0);
	movlw	low(STR_24|8000h)
	bcf	status, 5	;RP0=0, select bank0
	bcf	status, 6	;RP1=0, select bank0
	movwf	(?_LcdPrint)
	movlw	high(STR_24|8000h)
	movwf	((?_LcdPrint))+1
	clrf	0+(?_LcdPrint)+02h
	clrf	0+(?_LcdPrint)+03h
	fcall	_LcdPrint
	line	316
	
l10110:	
;main.c: 316: isDeleteUser = 0;
	bsf	status, 5	;RP0=1, select bank1
	bcf	status, 6	;RP1=0, select bank1
	clrf	(DeleteUserAfterAdminConfirm@isDeleteUser)^080h
	line	318
	
l10112:	
;main.c: 318: result = HiSpeedScan0(&UserNo);
	movlw	(DeleteUserAfterAdminConfirm@UserNo)&0ffh
	fcall	_HiSpeedScan0
	bcf	status, 5	;RP0=0, select bank0
	bcf	status, 6	;RP1=0, select bank0
	movwf	(??_DeleteUserAfterAdminConfirm+0)+0
	movf	(??_DeleteUserAfterAdminConfirm+0)+0,w
	bsf	status, 5	;RP0=1, select bank1
	bcf	status, 6	;RP1=0, select bank1
	movwf	(DeleteUserAfterAdminConfirm@result)^080h
	line	319
	
l10114:	
;main.c: 319: if(result == 0xFF) return 0;
	movf	(DeleteUserAfterAdminConfirm@result)^080h,w
	xorlw	0FFh
	skipz
	goto	u8481
	goto	u8480
u8481:
	goto	l10120
u8480:
	goto	l1534
	
l10116:	
;	Return value of _DeleteUserAfterAdminConfirm is never used
	goto	l1534
	
l10118:	
	goto	l1534
	line	320
	
l1533:	
	line	322
	
l10120:	
;main.c: 320: else
;main.c: 321: {
;main.c: 322: if(result == 1 && (UserNo == 0 || UserNo == 1))
	movf	(DeleteUserAfterAdminConfirm@result)^080h,w
	xorlw	01h
	skipz
	goto	u8491
	goto	u8490
u8491:
	goto	l10208
u8490:
	
l10122:	
	movf	(DeleteUserAfterAdminConfirm@UserNo)^080h,w
	skipz
	goto	u8500
	goto	l10126
u8500:
	
l10124:	
	movf	(DeleteUserAfterAdminConfirm@UserNo)^080h,w
	xorlw	01h
	skipz
	goto	u8511
	goto	u8510
u8511:
	goto	l10208
u8510:
	goto	l10126
	
l1538:	
	line	324
	
l10126:	
;main.c: 323: {
;main.c: 324: LcdClear();
	fcall	_LcdClear
	line	325
	
l10128:	
;main.c: 325: LcdPrint("Admin found",0,0);
	movlw	low(STR_25|8000h)
	bcf	status, 5	;RP0=0, select bank0
	bcf	status, 6	;RP1=0, select bank0
	movwf	(?_LcdPrint)
	movlw	high(STR_25|8000h)
	movwf	((?_LcdPrint))+1
	clrf	0+(?_LcdPrint)+02h
	clrf	0+(?_LcdPrint)+03h
	fcall	_LcdPrint
	line	326
	
l10130:	
;main.c: 326: Delay(2);
	movlw	low(02h)
	bcf	status, 5	;RP0=0, select bank0
	bcf	status, 6	;RP1=0, select bank0
	movwf	(?_Delay)
	movlw	high(02h)
	movwf	((?_Delay))+1
	fcall	_Delay
	line	328
	
l10132:	
;main.c: 328: DelUserNo = -1;
	bsf	status, 5	;RP0=1, select bank1
	bcf	status, 6	;RP1=0, select bank1
	clrf	(DeleteUserAfterAdminConfirm@DelUserNo)^080h
	decf	(DeleteUserAfterAdminConfirm@DelUserNo)^080h,f
	line	329
	
l10134:	
;main.c: 329: LcdClear();
	fcall	_LcdClear
	line	330
	
l10136:	
;main.c: 330: LcdPrint("Select User",0,0);
	movlw	low(STR_26|8000h)
	bcf	status, 5	;RP0=0, select bank0
	bcf	status, 6	;RP1=0, select bank0
	movwf	(?_LcdPrint)
	movlw	high(STR_26|8000h)
	movwf	((?_LcdPrint))+1
	clrf	0+(?_LcdPrint)+02h
	clrf	0+(?_LcdPrint)+03h
	fcall	_LcdPrint
	line	331
	
l10138:	
;main.c: 331: PutKey('1');
	movlw	(031h)
	fcall	_PutKey
	goto	l10140
	line	332
;main.c: 332: while(1)
	
l1539:	
	line	334
	
l10140:	
;main.c: 333: {
;main.c: 334: KeyScan();
	fcall	_KeyScan
	line	335
	
l10142:	
;main.c: 335: if(IsKeyPending())
	fcall	_IsKeyPending
	xorlw	0
	skipnz
	goto	u8521
	goto	u8520
u8521:
	goto	l10140
u8520:
	line	337
	
l10144:	
;main.c: 336: {
;main.c: 337: unsigned char key = GetKey();
	fcall	_GetKey
	bcf	status, 5	;RP0=0, select bank0
	bcf	status, 6	;RP1=0, select bank0
	movwf	(??_DeleteUserAfterAdminConfirm+0)+0
	movf	(??_DeleteUserAfterAdminConfirm+0)+0,w
	bsf	status, 5	;RP0=1, select bank1
	bcf	status, 6	;RP1=0, select bank1
	movwf	(DeleteUserAfterAdminConfirm@key)^080h
	line	338
	
l10146:	
;main.c: 338: if(key == '1'){ if(DelUserNo<12-1) DelUserNo++; }
	movf	(DeleteUserAfterAdminConfirm@key)^080h,w
	xorlw	031h
	skipz
	goto	u8531
	goto	u8530
u8531:
	goto	l10152
u8530:
	
l10148:	
	movf	(DeleteUserAfterAdminConfirm@DelUserNo)^080h,w
	xorlw	80h
	addlw	-((0Bh)^80h)
	skipnc
	goto	u8541
	goto	u8540
u8541:
	goto	l10168
u8540:
	
l10150:	
	movlw	(01h)
	bcf	status, 5	;RP0=0, select bank0
	bcf	status, 6	;RP1=0, select bank0
	movwf	(??_DeleteUserAfterAdminConfirm+0)+0
	movf	(??_DeleteUserAfterAdminConfirm+0)+0,w
	bsf	status, 5	;RP0=1, select bank1
	bcf	status, 6	;RP1=0, select bank1
	addwf	(DeleteUserAfterAdminConfirm@DelUserNo)^080h,f
	goto	l10168
	
l1542:	
	goto	l10168
	line	339
	
l1541:	
	
l10152:	
;main.c: 339: else if(key == '2') {if(DelUserNo > 0) DelUserNo--; }
	movf	(DeleteUserAfterAdminConfirm@key)^080h,w
	xorlw	032h
	skipz
	goto	u8551
	goto	u8550
u8551:
	goto	l10158
u8550:
	
l10154:	
	movf	(DeleteUserAfterAdminConfirm@DelUserNo)^080h,w
	xorlw	80h
	addlw	-((01h)^80h)
	skipc
	goto	u8561
	goto	u8560
u8561:
	goto	l10168
u8560:
	
l10156:	
	movlw	(-1)
	bcf	status, 5	;RP0=0, select bank0
	bcf	status, 6	;RP1=0, select bank0
	movwf	(??_DeleteUserAfterAdminConfirm+0)+0
	movf	(??_DeleteUserAfterAdminConfirm+0)+0,w
	bsf	status, 5	;RP0=1, select bank1
	bcf	status, 6	;RP1=0, select bank1
	addwf	(DeleteUserAfterAdminConfirm@DelUserNo)^080h,f
	goto	l10168
	
l1545:	
	goto	l10168
	line	340
	
l1544:	
	
l10158:	
;main.c: 340: else if(key == '3') return 0;
	movf	(DeleteUserAfterAdminConfirm@key)^080h,w
	xorlw	033h
	skipz
	goto	u8571
	goto	u8570
u8571:
	goto	l10164
u8570:
	goto	l1534
	
l10160:	
;	Return value of _DeleteUserAfterAdminConfirm is never used
	goto	l1534
	
l10162:	
	goto	l10168
	line	341
	
l1547:	
	
l10164:	
;main.c: 341: else if(key == '4') break;
	movf	(DeleteUserAfterAdminConfirm@key)^080h,w
	xorlw	034h
	skipz
	goto	u8581
	goto	u8580
u8581:
	goto	l10168
u8580:
	goto	l10172
	
l10166:	
	goto	l10172
	
l1549:	
	goto	l10168
	line	343
	
l1548:	
	goto	l10168
	
l1546:	
	goto	l10168
	
l1543:	
	
l10168:	
;main.c: 343: buff[0]=UserNoArr[DelUserNo][0];
	movlw	(03h)
	bcf	status, 5	;RP0=0, select bank0
	bcf	status, 6	;RP1=0, select bank0
	movwf	(??_DeleteUserAfterAdminConfirm+0)+0
	movf	(??_DeleteUserAfterAdminConfirm+0)+0,w
	movwf	(?___bmul)
	bsf	status, 5	;RP0=1, select bank1
	bcf	status, 6	;RP1=0, select bank1
	movf	(DeleteUserAfterAdminConfirm@DelUserNo)^080h,w
	fcall	___bmul
	addlw	low(_UserNoArr|8000h)
	movwf	fsr0
	movlw	high(_UserNoArr|8000h)
	skipnc
	addlw	1
	bcf	status, 5	;RP0=0, select bank0
	bcf	status, 6	;RP1=0, select bank0
	movwf	btemp+1
	fcall	stringtab
	movwf	(??_DeleteUserAfterAdminConfirm+1)+0
	movf	(??_DeleteUserAfterAdminConfirm+1)+0,w
	bsf	status, 5	;RP0=1, select bank1
	bcf	status, 6	;RP1=0, select bank1
	movwf	(DeleteUserAfterAdminConfirm@buff)^080h
	line	344
;main.c: 344: buff[1]=UserNoArr[DelUserNo][1];
	movlw	(03h)
	bcf	status, 5	;RP0=0, select bank0
	bcf	status, 6	;RP1=0, select bank0
	movwf	(??_DeleteUserAfterAdminConfirm+0)+0
	movf	(??_DeleteUserAfterAdminConfirm+0)+0,w
	movwf	(?___bmul)
	bsf	status, 5	;RP0=1, select bank1
	bcf	status, 6	;RP1=0, select bank1
	movf	(DeleteUserAfterAdminConfirm@DelUserNo)^080h,w
	fcall	___bmul
	addlw	01h
	addlw	low(_UserNoArr|8000h)
	movwf	fsr0
	movlw	high(_UserNoArr|8000h)
	skipnc
	addlw	1
	bcf	status, 5	;RP0=0, select bank0
	bcf	status, 6	;RP1=0, select bank0
	movwf	btemp+1
	fcall	stringtab
	movwf	(??_DeleteUserAfterAdminConfirm+1)+0
	movf	(??_DeleteUserAfterAdminConfirm+1)+0,w
	bsf	status, 5	;RP0=1, select bank1
	bcf	status, 6	;RP1=0, select bank1
	movwf	0+(DeleteUserAfterAdminConfirm@buff)^080h+01h
	line	345
	
l10170:	
;main.c: 345: buff[2]=0;
	clrf	0+(DeleteUserAfterAdminConfirm@buff)^080h+02h
	line	346
;main.c: 346: LcdPrint(buff, 1, 5);
	movlw	(DeleteUserAfterAdminConfirm@buff&0ffh)
	bcf	status, 5	;RP0=0, select bank0
	bcf	status, 6	;RP1=0, select bank0
	movwf	(?_LcdPrint)
	movlw	(0x1/2)
	movwf	(?_LcdPrint+1)
	clrf	0+(?_LcdPrint)+02h
	bsf	status,0
	rlf	0+(?_LcdPrint)+02h,f
	movlw	(05h)
	movwf	(??_DeleteUserAfterAdminConfirm+0)+0
	movf	(??_DeleteUserAfterAdminConfirm+0)+0,w
	movwf	0+(?_LcdPrint)+03h
	fcall	_LcdPrint
	goto	l10140
	line	347
	
l1540:	
	goto	l10140
	line	348
	
l1551:	
	line	332
	goto	l10140
	
l1550:	
	line	349
	
l10172:	
;main.c: 347: }
;main.c: 348: }
;main.c: 349: if(DelUserNo == -1)
	bsf	status, 5	;RP0=1, select bank1
	bcf	status, 6	;RP1=0, select bank1
	movf	(DeleteUserAfterAdminConfirm@DelUserNo)^080h,w
	xorlw	-1
	skipz
	goto	u8591
	goto	u8590
u8591:
	goto	l1552
u8590:
	line	351
	
l10174:	
;main.c: 350: {
;main.c: 351: LcdClear();
	fcall	_LcdClear
	line	352
	
l10176:	
;main.c: 352: LcdPrint("Invalid\n Selection",0,0);
	movlw	low(STR_27|8000h)
	bcf	status, 5	;RP0=0, select bank0
	bcf	status, 6	;RP1=0, select bank0
	movwf	(?_LcdPrint)
	movlw	high(STR_27|8000h)
	movwf	((?_LcdPrint))+1
	clrf	0+(?_LcdPrint)+02h
	clrf	0+(?_LcdPrint)+03h
	fcall	_LcdPrint
	line	353
	
l10178:	
;main.c: 353: Delay(2);
	movlw	low(02h)
	bcf	status, 5	;RP0=0, select bank0
	bcf	status, 6	;RP1=0, select bank0
	movwf	(?_Delay)
	movlw	high(02h)
	movwf	((?_Delay))+1
	fcall	_Delay
	line	354
;main.c: 354: }
	goto	l1534
	line	355
	
l1552:	
;main.c: 355: else if(DelUserNo>=0 && DelUserNo<12)
	btfsc	(DeleteUserAfterAdminConfirm@DelUserNo)^080h,7
	goto	u8601
	goto	u8600
u8601:
	goto	l10202
u8600:
	
l10180:	
	movf	(DeleteUserAfterAdminConfirm@DelUserNo)^080h,w
	xorlw	80h
	addlw	-((0Ch)^80h)
	skipnc
	goto	u8611
	goto	u8610
u8611:
	goto	l10202
u8610:
	line	357
	
l10182:	
;main.c: 356: {
;main.c: 357: DelUserNo = DelUserNo + 2;
	movf	(DeleteUserAfterAdminConfirm@DelUserNo)^080h,w
	addlw	02h
	bcf	status, 5	;RP0=0, select bank0
	bcf	status, 6	;RP1=0, select bank0
	movwf	(??_DeleteUserAfterAdminConfirm+0)+0
	movf	(??_DeleteUserAfterAdminConfirm+0)+0,w
	bsf	status, 5	;RP0=1, select bank1
	bcf	status, 6	;RP1=0, select bank1
	movwf	(DeleteUserAfterAdminConfirm@DelUserNo)^080h
	line	358
	
l10184:	
;main.c: 358: if(DeleteUser(DelUserNo) == 1)
	movf	(DeleteUserAfterAdminConfirm@DelUserNo)^080h,w
	fcall	_DeleteUser
	xorlw	01h
	skipz
	goto	u8621
	goto	u8620
u8621:
	goto	l10196
u8620:
	line	360
	
l10186:	
;main.c: 359: {
;main.c: 360: memset1(buff, 0, sizeof(buff));
	movlw	(DeleteUserAfterAdminConfirm@buff&0ffh)
	bcf	status, 5	;RP0=0, select bank0
	bcf	status, 6	;RP1=0, select bank0
	movwf	(?_memset1)
	movlw	(0x1/2)
	movwf	(?_memset1+1)
	clrf	0+(?_memset1)+02h
	movlw	low(0Ah)
	movwf	0+(?_memset1)+03h
	movlw	high(0Ah)
	movwf	(0+(?_memset1)+03h)+1
	fcall	_memset1
	line	361
;main.c: 361: LcdClear();
	fcall	_LcdClear
	line	362
	
l10188:	
;main.c: 362: LcdPrint("User Deleted\nUser No:",0,0);
	movlw	low(STR_28|8000h)
	bcf	status, 5	;RP0=0, select bank0
	bcf	status, 6	;RP1=0, select bank0
	movwf	(?_LcdPrint)
	movlw	high(STR_28|8000h)
	movwf	((?_LcdPrint))+1
	clrf	0+(?_LcdPrint)+02h
	clrf	0+(?_LcdPrint)+03h
	fcall	_LcdPrint
	line	363
	
l10190:	
;main.c: 363: DecToStr(DelUserNo, buff, 2);
	bsf	status, 5	;RP0=1, select bank1
	bcf	status, 6	;RP1=0, select bank1
	movf	(DeleteUserAfterAdminConfirm@DelUserNo)^080h,w
	bcf	status, 5	;RP0=0, select bank0
	bcf	status, 6	;RP1=0, select bank0
	movwf	(?_DecToStr)
	andlw	80h
	skipz
	movlw	255
	movwf	(?_DecToStr+1)
	movwf	(?_DecToStr+2)
	movwf	(?_DecToStr+3)
	movlw	(DeleteUserAfterAdminConfirm@buff)&0ffh
	movwf	(??_DeleteUserAfterAdminConfirm+0)+0
	movf	(??_DeleteUserAfterAdminConfirm+0)+0,w
	movwf	(0+?_DecToStr+04h)
	movlw	(02h)
	movwf	(??_DeleteUserAfterAdminConfirm+1)+0
	movf	(??_DeleteUserAfterAdminConfirm+1)+0,w
	movwf	0+(?_DecToStr)+05h
	fcall	_DecToStr
	line	364
;main.c: 364: LcdPrint(buff, 1, 9);
	movlw	(DeleteUserAfterAdminConfirm@buff&0ffh)
	bcf	status, 5	;RP0=0, select bank0
	bcf	status, 6	;RP1=0, select bank0
	movwf	(?_LcdPrint)
	movlw	(0x1/2)
	movwf	(?_LcdPrint+1)
	clrf	0+(?_LcdPrint)+02h
	bsf	status,0
	rlf	0+(?_LcdPrint)+02h,f
	movlw	(09h)
	movwf	(??_DeleteUserAfterAdminConfirm+0)+0
	movf	(??_DeleteUserAfterAdminConfirm+0)+0,w
	movwf	0+(?_LcdPrint)+03h
	fcall	_LcdPrint
	line	365
	
l10192:	
;main.c: 365: releaseEElocation(DelUserNo);
	bsf	status, 5	;RP0=1, select bank1
	bcf	status, 6	;RP1=0, select bank1
	movf	(DeleteUserAfterAdminConfirm@DelUserNo)^080h,w
	fcall	_releaseEElocation
	line	366
	
l10194:	
;main.c: 366: Delay(2);
	movlw	low(02h)
	bcf	status, 5	;RP0=0, select bank0
	bcf	status, 6	;RP1=0, select bank0
	movwf	(?_Delay)
	movlw	high(02h)
	movwf	((?_Delay))+1
	fcall	_Delay
	line	367
;main.c: 367: }
	goto	l1534
	line	368
	
l1555:	
	line	370
	
l10196:	
;main.c: 368: else
;main.c: 369: {
;main.c: 370: LcdClear();
	fcall	_LcdClear
	line	371
	
l10198:	
;main.c: 371: LcdPrint("Cannot Delete",0,0);
	movlw	low(STR_29|8000h)
	bcf	status, 5	;RP0=0, select bank0
	bcf	status, 6	;RP1=0, select bank0
	movwf	(?_LcdPrint)
	movlw	high(STR_29|8000h)
	movwf	((?_LcdPrint))+1
	clrf	0+(?_LcdPrint)+02h
	clrf	0+(?_LcdPrint)+03h
	fcall	_LcdPrint
	line	372
	
l10200:	
;main.c: 372: Delay(2);
	movlw	low(02h)
	bcf	status, 5	;RP0=0, select bank0
	bcf	status, 6	;RP1=0, select bank0
	movwf	(?_Delay)
	movlw	high(02h)
	movwf	((?_Delay))+1
	fcall	_Delay
	goto	l1534
	line	373
	
l1556:	
	line	374
;main.c: 373: }
;main.c: 374: }
	goto	l1534
	line	375
	
l1554:	
	line	377
	
l10202:	
;main.c: 375: else
;main.c: 376: {
;main.c: 377: LcdClear();
	fcall	_LcdClear
	line	378
	
l10204:	
;main.c: 378: LcdPrint("Index Out\n of bound",0,0);
	movlw	low(STR_30|8000h)
	bcf	status, 5	;RP0=0, select bank0
	bcf	status, 6	;RP1=0, select bank0
	movwf	(?_LcdPrint)
	movlw	high(STR_30|8000h)
	movwf	((?_LcdPrint))+1
	clrf	0+(?_LcdPrint)+02h
	clrf	0+(?_LcdPrint)+03h
	fcall	_LcdPrint
	line	379
	
l10206:	
;main.c: 379: Delay(2);
	movlw	low(02h)
	bcf	status, 5	;RP0=0, select bank0
	bcf	status, 6	;RP1=0, select bank0
	movwf	(?_Delay)
	movlw	high(02h)
	movwf	((?_Delay))+1
	fcall	_Delay
	goto	l1534
	line	380
	
l1557:	
	goto	l1534
	
l1553:	
	line	381
;main.c: 380: }
;main.c: 381: }
	goto	l1534
	line	382
	
l1536:	
	line	384
	
l10208:	
;main.c: 382: else
;main.c: 383: {
;main.c: 384: LcdClear();
	fcall	_LcdClear
	line	385
	
l10210:	
;main.c: 385: LcdPrint("Admin Not\n  found",0,0);
	movlw	low(STR_31|8000h)
	bcf	status, 5	;RP0=0, select bank0
	bcf	status, 6	;RP1=0, select bank0
	movwf	(?_LcdPrint)
	movlw	high(STR_31|8000h)
	movwf	((?_LcdPrint))+1
	clrf	0+(?_LcdPrint)+02h
	clrf	0+(?_LcdPrint)+03h
	fcall	_LcdPrint
	line	386
	
l10212:	
;main.c: 386: Delay(2);
	movlw	low(02h)
	bcf	status, 5	;RP0=0, select bank0
	bcf	status, 6	;RP1=0, select bank0
	movwf	(?_Delay)
	movlw	high(02h)
	movwf	((?_Delay))+1
	fcall	_Delay
	goto	l1534
	line	387
	
l10214:	
;main.c: 387: return 0;
;	Return value of _DeleteUserAfterAdminConfirm is never used
	goto	l1534
	line	388
	
l1558:	
	goto	l1534
	line	389
	
l1535:	
	goto	l1534
	line	390
	
l1532:	
	line	392
;main.c: 388: }
;main.c: 389: }
;main.c: 390: }
;main.c: 391: return 0;
;	Return value of _DeleteUserAfterAdminConfirm is never used
	
l1534:	
	return
	opt stack 0
GLOBAL	__end_of_DeleteUserAfterAdminConfirm
	__end_of_DeleteUserAfterAdminConfirm:
;; =============== function _DeleteUserAfterAdminConfirm ends ============

	signat	_DeleteUserAfterAdminConfirm,89
	global	_AddNewUserAfterAdminConfirm
psect	text1823,local,class=CODE,delta=2
global __ptext1823
__ptext1823:

;; *************** function _AddNewUserAfterAdminConfirm *****************
;; Defined at:
;;		line 209 in file "C:\Users\GauravLT\Desktop\AccessControlBy4Users\AccessControlUsingFingerSense-master\AccessControlUsingFingerSense-master\PIC16F877A_R307\main.c"
;; Parameters:    Size  Location     Type
;;		None
;; Auto vars:     Size  Location     Type
;;  buff           10    6[BANK1 ] unsigned char [10]
;;  AddNewUserRe    1   24[BANK1 ] unsigned char 
;;  availSpaceRe    1   23[BANK1 ] unsigned char 
;;  buff            5   16[BANK1 ] unsigned char [5]
;;  _availSpaceR    1   27[BANK1 ] char 
;;  key             1   26[BANK1 ] unsigned char 
;;  UserNo          1   25[BANK1 ] unsigned char 
;;  result          1   22[BANK1 ] unsigned char 
;;  isAddNewUser    1   21[BANK1 ] unsigned char 
;; Return value:  Size  Location     Type
;;                  1    wreg      unsigned char 
;; Registers used:
;;		wreg, fsr0l, fsr0h, status,2, status,0, btemp+1, pclath, cstack
;; Tracked objects:
;;		On entry : 0/0
;;		On exit  : 0/0
;;		Unchanged: 0/0
;; Data sizes:     COMMON   BANK0   BANK1   BANK3   BANK2
;;      Params:         0       0       0       0       0
;;      Locals:         0       0      22       0       0
;;      Temps:          0       0       6       0       0
;;      Totals:         0       0      28       0       0
;;Total ram usage:       28 bytes
;; Hardware stack levels used:    1
;; Hardware stack levels required when called:    7
;; This function calls:
;;		_ee_read
;;		_LcdClear
;;		_LcdPrint
;;		_HiSpeedScan0
;;		_Delay
;;		_PutKey
;;		_KeyScan
;;		_IsKeyPending
;;		_GetKey
;;		___bmul
;;		_AddNewUser
;;		_DecToStr
;; This function is called by:
;;		_main
;; This function uses a non-reentrant model
;;
psect	text1823
	file	"C:\Users\GauravLT\Desktop\AccessControlBy4Users\AccessControlUsingFingerSense-master\AccessControlUsingFingerSense-master\PIC16F877A_R307\main.c"
	line	209
	global	__size_of_AddNewUserAfterAdminConfirm
	__size_of_AddNewUserAfterAdminConfirm	equ	__end_of_AddNewUserAfterAdminConfirm-_AddNewUserAfterAdminConfirm
	
_AddNewUserAfterAdminConfirm:	
;; using string table level
	opt	stack 1
; Regs used in _AddNewUserAfterAdminConfirm: [wreg-fsr0h+status,2+status,0+btemp+1+pclath+cstack]
	line	210
	
l9968:	
;main.c: 210: unsigned char isAddNewUser=1,UserNo,result,key;
	bsf	status, 5	;RP0=1, select bank1
	bcf	status, 6	;RP1=0, select bank1
	clrf	(AddNewUserAfterAdminConfirm@isAddNewUser)^080h
	bsf	status,0
	rlf	(AddNewUserAfterAdminConfirm@isAddNewUser)^080h,f
	line	212
	
l9970:	
;main.c: 211: unsigned char buff[5];
;main.c: 212: signed char _availSpaceResult = -1;
	clrf	(AddNewUserAfterAdminConfirm@_availSpaceResult)^080h
	decf	(AddNewUserAfterAdminConfirm@_availSpaceResult)^080h,f
	line	214
	
l9972:	
;main.c: 214: if(ee_read(0x00) == 0x01)
	movlw	(0)
	fcall	_ee_read
	xorlw	01h
	skipz
	goto	u8291
	goto	u8290
u8291:
	goto	l10010
u8290:
	line	216
	
l9974:	
;main.c: 215: {
;main.c: 216: LcdClear();
	fcall	_LcdClear
	line	217
	
l9976:	
;main.c: 217: LcdPrint("Admin Required\nPlace Finger",0,0);
	movlw	low(STR_15|8000h)
	bcf	status, 5	;RP0=0, select bank0
	bcf	status, 6	;RP1=0, select bank0
	movwf	(?_LcdPrint)
	movlw	high(STR_15|8000h)
	movwf	((?_LcdPrint))+1
	clrf	0+(?_LcdPrint)+02h
	clrf	0+(?_LcdPrint)+03h
	fcall	_LcdPrint
	line	218
	
l9978:	
;main.c: 218: isAddNewUser = 0;
	bsf	status, 5	;RP0=1, select bank1
	bcf	status, 6	;RP1=0, select bank1
	clrf	(AddNewUserAfterAdminConfirm@isAddNewUser)^080h
	line	220
	
l9980:	
;main.c: 220: result = HiSpeedScan0(&UserNo);
	movlw	(AddNewUserAfterAdminConfirm@UserNo)&0ffh
	fcall	_HiSpeedScan0
	bsf	status, 5	;RP0=1, select bank1
	bcf	status, 6	;RP1=0, select bank1
	movwf	(??_AddNewUserAfterAdminConfirm+0)^080h+0
	movf	(??_AddNewUserAfterAdminConfirm+0)^080h+0,w
	movwf	(AddNewUserAfterAdminConfirm@result)^080h
	line	221
	
l9982:	
;main.c: 221: if(result == 0xFF) return 0;
	movf	(AddNewUserAfterAdminConfirm@result)^080h,w
	xorlw	0FFh
	skipz
	goto	u8301
	goto	u8300
u8301:
	goto	l9988
u8300:
	goto	l1502
	
l9984:	
;	Return value of _AddNewUserAfterAdminConfirm is never used
	goto	l1502
	
l9986:	
	goto	l10010
	line	222
	
l1501:	
	line	224
	
l9988:	
;main.c: 222: else
;main.c: 223: {
;main.c: 224: if(result == 1 && (UserNo == 0 || UserNo == 1))
	movf	(AddNewUserAfterAdminConfirm@result)^080h,w
	xorlw	01h
	skipz
	goto	u8311
	goto	u8310
u8311:
	goto	l10002
u8310:
	
l9990:	
	movf	(AddNewUserAfterAdminConfirm@UserNo)^080h,w
	skipz
	goto	u8320
	goto	l9994
u8320:
	
l9992:	
	movf	(AddNewUserAfterAdminConfirm@UserNo)^080h,w
	xorlw	01h
	skipz
	goto	u8331
	goto	u8330
u8331:
	goto	l10002
u8330:
	goto	l9994
	
l1506:	
	line	226
	
l9994:	
;main.c: 225: {
;main.c: 226: LcdClear();
	fcall	_LcdClear
	line	227
	
l9996:	
;main.c: 227: LcdPrint("Admin found",0,0);
	movlw	low(STR_16|8000h)
	bcf	status, 5	;RP0=0, select bank0
	bcf	status, 6	;RP1=0, select bank0
	movwf	(?_LcdPrint)
	movlw	high(STR_16|8000h)
	movwf	((?_LcdPrint))+1
	clrf	0+(?_LcdPrint)+02h
	clrf	0+(?_LcdPrint)+03h
	fcall	_LcdPrint
	line	228
	
l9998:	
;main.c: 228: Delay(2);
	movlw	low(02h)
	bcf	status, 5	;RP0=0, select bank0
	bcf	status, 6	;RP1=0, select bank0
	movwf	(?_Delay)
	movlw	high(02h)
	movwf	((?_Delay))+1
	fcall	_Delay
	line	229
	
l10000:	
;main.c: 229: isAddNewUser = 1;
	bsf	status, 5	;RP0=1, select bank1
	bcf	status, 6	;RP1=0, select bank1
	clrf	(AddNewUserAfterAdminConfirm@isAddNewUser)^080h
	bsf	status,0
	rlf	(AddNewUserAfterAdminConfirm@isAddNewUser)^080h,f
	line	230
;main.c: 230: }
	goto	l10010
	line	231
	
l1504:	
	line	233
	
l10002:	
;main.c: 231: else
;main.c: 232: {
;main.c: 233: LcdClear();
	fcall	_LcdClear
	line	234
	
l10004:	
;main.c: 234: LcdPrint("Admin Not\n  found",0,0);
	movlw	low(STR_17|8000h)
	bcf	status, 5	;RP0=0, select bank0
	bcf	status, 6	;RP1=0, select bank0
	movwf	(?_LcdPrint)
	movlw	high(STR_17|8000h)
	movwf	((?_LcdPrint))+1
	clrf	0+(?_LcdPrint)+02h
	clrf	0+(?_LcdPrint)+03h
	fcall	_LcdPrint
	line	235
	
l10006:	
;main.c: 235: Delay(2);
	movlw	low(02h)
	bcf	status, 5	;RP0=0, select bank0
	bcf	status, 6	;RP1=0, select bank0
	movwf	(?_Delay)
	movlw	high(02h)
	movwf	((?_Delay))+1
	fcall	_Delay
	goto	l1502
	line	236
	
l10008:	
;main.c: 236: return 0;
;	Return value of _AddNewUserAfterAdminConfirm is never used
	goto	l1502
	line	237
	
l1507:	
	goto	l10010
	line	238
	
l1503:	
	goto	l10010
	line	239
	
l1500:	
	line	240
	
l10010:	
;main.c: 237: }
;main.c: 238: }
;main.c: 239: }
;main.c: 240: if(isAddNewUser == 1)
	bsf	status, 5	;RP0=1, select bank1
	bcf	status, 6	;RP1=0, select bank1
	movf	(AddNewUserAfterAdminConfirm@isAddNewUser)^080h,w
	xorlw	01h
	skipz
	goto	u8341
	goto	u8340
u8341:
	goto	l1502
u8340:
	line	242
	
l10012:	
;main.c: 241: {
;main.c: 242: LcdClear();
	fcall	_LcdClear
	line	243
	
l10014:	
;main.c: 243: _availSpaceResult = -1;
	bsf	status, 5	;RP0=1, select bank1
	bcf	status, 6	;RP1=0, select bank1
	clrf	(AddNewUserAfterAdminConfirm@_availSpaceResult)^080h
	decf	(AddNewUserAfterAdminConfirm@_availSpaceResult)^080h,f
	line	244
	
l10016:	
;main.c: 244: LcdPrint("Select User", 0, 0);
	movlw	low(STR_18|8000h)
	bcf	status, 5	;RP0=0, select bank0
	bcf	status, 6	;RP1=0, select bank0
	movwf	(?_LcdPrint)
	movlw	high(STR_18|8000h)
	movwf	((?_LcdPrint))+1
	clrf	0+(?_LcdPrint)+02h
	clrf	0+(?_LcdPrint)+03h
	fcall	_LcdPrint
	line	246
	
l10018:	
;main.c: 246: PutKey('1');
	movlw	(031h)
	fcall	_PutKey
	goto	l10020
	line	247
;main.c: 247: while(1)
	
l1509:	
	line	249
	
l10020:	
;main.c: 248: {
;main.c: 249: KeyScan();
	fcall	_KeyScan
	line	250
	
l10022:	
;main.c: 250: if(IsKeyPending())
	fcall	_IsKeyPending
	xorlw	0
	skipnz
	goto	u8351
	goto	u8350
u8351:
	goto	l10020
u8350:
	line	252
	
l10024:	
;main.c: 251: {
;main.c: 252: key = GetKey();
	fcall	_GetKey
	bsf	status, 5	;RP0=1, select bank1
	bcf	status, 6	;RP1=0, select bank1
	movwf	(??_AddNewUserAfterAdminConfirm+0)^080h+0
	movf	(??_AddNewUserAfterAdminConfirm+0)^080h+0,w
	movwf	(AddNewUserAfterAdminConfirm@key)^080h
	line	253
	
l10026:	
;main.c: 253: if(key == '1'){ if(_availSpaceResult<12-1) _availSpaceResult++; }
	movf	(AddNewUserAfterAdminConfirm@key)^080h,w
	xorlw	031h
	skipz
	goto	u8361
	goto	u8360
u8361:
	goto	l10032
u8360:
	
l10028:	
	movf	(AddNewUserAfterAdminConfirm@_availSpaceResult)^080h,w
	xorlw	80h
	addlw	-((0Bh)^80h)
	skipnc
	goto	u8371
	goto	u8370
u8371:
	goto	l10048
u8370:
	
l10030:	
	movlw	(01h)
	movwf	(??_AddNewUserAfterAdminConfirm+0)^080h+0
	movf	(??_AddNewUserAfterAdminConfirm+0)^080h+0,w
	addwf	(AddNewUserAfterAdminConfirm@_availSpaceResult)^080h,f
	goto	l10048
	
l1512:	
	goto	l10048
	line	254
	
l1511:	
	
l10032:	
;main.c: 254: else if(key == '2') {if(_availSpaceResult > 0) _availSpaceResult--; }
	movf	(AddNewUserAfterAdminConfirm@key)^080h,w
	xorlw	032h
	skipz
	goto	u8381
	goto	u8380
u8381:
	goto	l10038
u8380:
	
l10034:	
	movf	(AddNewUserAfterAdminConfirm@_availSpaceResult)^080h,w
	xorlw	80h
	addlw	-((01h)^80h)
	skipc
	goto	u8391
	goto	u8390
u8391:
	goto	l10048
u8390:
	
l10036:	
	movlw	(-1)
	movwf	(??_AddNewUserAfterAdminConfirm+0)^080h+0
	movf	(??_AddNewUserAfterAdminConfirm+0)^080h+0,w
	addwf	(AddNewUserAfterAdminConfirm@_availSpaceResult)^080h,f
	goto	l10048
	
l1515:	
	goto	l10048
	line	255
	
l1514:	
	
l10038:	
;main.c: 255: else if(key == '3') return 0;
	movf	(AddNewUserAfterAdminConfirm@key)^080h,w
	xorlw	033h
	skipz
	goto	u8401
	goto	u8400
u8401:
	goto	l10044
u8400:
	goto	l1502
	
l10040:	
;	Return value of _AddNewUserAfterAdminConfirm is never used
	goto	l1502
	
l10042:	
	goto	l10048
	line	256
	
l1517:	
	
l10044:	
;main.c: 256: else if(key == '4') break;
	movf	(AddNewUserAfterAdminConfirm@key)^080h,w
	xorlw	034h
	skipz
	goto	u8411
	goto	u8410
u8411:
	goto	l10048
u8410:
	goto	l10052
	
l10046:	
	goto	l10052
	
l1519:	
	goto	l10048
	line	258
	
l1518:	
	goto	l10048
	
l1516:	
	goto	l10048
	
l1513:	
	
l10048:	
;main.c: 258: buff[0]=UserNoArr[_availSpaceResult][0];
	movlw	(03h)
	movwf	(??_AddNewUserAfterAdminConfirm+0)^080h+0
	movf	(??_AddNewUserAfterAdminConfirm+0)^080h+0,w
	bcf	status, 5	;RP0=0, select bank0
	bcf	status, 6	;RP1=0, select bank0
	movwf	(?___bmul)
	bsf	status, 5	;RP0=1, select bank1
	bcf	status, 6	;RP1=0, select bank1
	movf	(AddNewUserAfterAdminConfirm@_availSpaceResult)^080h,w
	fcall	___bmul
	addlw	low(_UserNoArr|8000h)
	movwf	fsr0
	movlw	high(_UserNoArr|8000h)
	skipnc
	addlw	1
	bcf	status, 5	;RP0=0, select bank0
	bcf	status, 6	;RP1=0, select bank0
	movwf	btemp+1
	fcall	stringtab
	bsf	status, 5	;RP0=1, select bank1
	bcf	status, 6	;RP1=0, select bank1
	movwf	(??_AddNewUserAfterAdminConfirm+1)^080h+0
	movf	(??_AddNewUserAfterAdminConfirm+1)^080h+0,w
	movwf	(AddNewUserAfterAdminConfirm@buff)^080h
	line	259
;main.c: 259: buff[1]=UserNoArr[_availSpaceResult][1];
	movlw	(03h)
	movwf	(??_AddNewUserAfterAdminConfirm+0)^080h+0
	movf	(??_AddNewUserAfterAdminConfirm+0)^080h+0,w
	bcf	status, 5	;RP0=0, select bank0
	bcf	status, 6	;RP1=0, select bank0
	movwf	(?___bmul)
	bsf	status, 5	;RP0=1, select bank1
	bcf	status, 6	;RP1=0, select bank1
	movf	(AddNewUserAfterAdminConfirm@_availSpaceResult)^080h,w
	fcall	___bmul
	addlw	01h
	addlw	low(_UserNoArr|8000h)
	movwf	fsr0
	movlw	high(_UserNoArr|8000h)
	skipnc
	addlw	1
	bcf	status, 5	;RP0=0, select bank0
	bcf	status, 6	;RP1=0, select bank0
	movwf	btemp+1
	fcall	stringtab
	bsf	status, 5	;RP0=1, select bank1
	bcf	status, 6	;RP1=0, select bank1
	movwf	(??_AddNewUserAfterAdminConfirm+1)^080h+0
	movf	(??_AddNewUserAfterAdminConfirm+1)^080h+0,w
	movwf	0+(AddNewUserAfterAdminConfirm@buff)^080h+01h
	line	260
	
l10050:	
;main.c: 260: buff[2]=0;
	clrf	0+(AddNewUserAfterAdminConfirm@buff)^080h+02h
	line	261
;main.c: 261: LcdPrint(buff, 1, 2);
	movlw	(AddNewUserAfterAdminConfirm@buff&0ffh)
	bcf	status, 5	;RP0=0, select bank0
	bcf	status, 6	;RP1=0, select bank0
	movwf	(?_LcdPrint)
	movlw	(0x1/2)
	movwf	(?_LcdPrint+1)
	clrf	0+(?_LcdPrint)+02h
	bsf	status,0
	rlf	0+(?_LcdPrint)+02h,f
	movlw	(02h)
	bsf	status, 5	;RP0=1, select bank1
	bcf	status, 6	;RP1=0, select bank1
	movwf	(??_AddNewUserAfterAdminConfirm+0)^080h+0
	movf	(??_AddNewUserAfterAdminConfirm+0)^080h+0,w
	bcf	status, 5	;RP0=0, select bank0
	bcf	status, 6	;RP1=0, select bank0
	movwf	0+(?_LcdPrint)+03h
	fcall	_LcdPrint
	goto	l10020
	line	262
	
l1510:	
	goto	l10020
	line	263
	
l1521:	
	line	247
	goto	l10020
	
l1520:	
	line	265
	
l10052:	
;main.c: 262: }
;main.c: 263: }
;main.c: 265: if(_availSpaceResult == -1)
	bsf	status, 5	;RP0=1, select bank1
	bcf	status, 6	;RP1=0, select bank1
	movf	(AddNewUserAfterAdminConfirm@_availSpaceResult)^080h,w
	xorlw	-1
	skipz
	goto	u8421
	goto	u8420
u8421:
	goto	l1522
u8420:
	line	267
	
l10054:	
;main.c: 266: {
;main.c: 267: LcdClear();
	fcall	_LcdClear
	line	268
	
l10056:	
;main.c: 268: LcdPrint("Invalid\n Selection",0,0);
	movlw	low(STR_19|8000h)
	bcf	status, 5	;RP0=0, select bank0
	bcf	status, 6	;RP1=0, select bank0
	movwf	(?_LcdPrint)
	movlw	high(STR_19|8000h)
	movwf	((?_LcdPrint))+1
	clrf	0+(?_LcdPrint)+02h
	clrf	0+(?_LcdPrint)+03h
	fcall	_LcdPrint
	line	269
	
l10058:	
;main.c: 269: Delay(2);
	movlw	low(02h)
	bcf	status, 5	;RP0=0, select bank0
	bcf	status, 6	;RP1=0, select bank0
	movwf	(?_Delay)
	movlw	high(02h)
	movwf	((?_Delay))+1
	fcall	_Delay
	line	270
;main.c: 270: }
	goto	l1502
	line	271
	
l1522:	
;main.c: 271: else if(_availSpaceResult >= 0 && _availSpaceResult < 12)
	btfsc	(AddNewUserAfterAdminConfirm@_availSpaceResult)^080h,7
	goto	u8431
	goto	u8430
u8431:
	goto	l10094
u8430:
	
l10060:	
	movf	(AddNewUserAfterAdminConfirm@_availSpaceResult)^080h,w
	xorlw	80h
	addlw	-((0Ch)^80h)
	skipnc
	goto	u8441
	goto	u8440
u8441:
	goto	l10094
u8440:
	line	273
	
l10062:	
;main.c: 272: {
;main.c: 273: _availSpaceResult += 2;
	movlw	(02h)
	movwf	(??_AddNewUserAfterAdminConfirm+0)^080h+0
	movf	(??_AddNewUserAfterAdminConfirm+0)^080h+0,w
	addwf	(AddNewUserAfterAdminConfirm@_availSpaceResult)^080h,f
	line	274
	
l10064:	
;main.c: 274: LcdClear();
	fcall	_LcdClear
	line	275
	
l10066:	
;main.c: 275: LcdPrint("New User\nPlace Finger",0,0);
	movlw	low(STR_20|8000h)
	bcf	status, 5	;RP0=0, select bank0
	bcf	status, 6	;RP1=0, select bank0
	movwf	(?_LcdPrint)
	movlw	high(STR_20|8000h)
	movwf	((?_LcdPrint))+1
	clrf	0+(?_LcdPrint)+02h
	clrf	0+(?_LcdPrint)+03h
	fcall	_LcdPrint
	line	276
	
l10068:	
;main.c: 276: unsigned char availSpaceResult = _availSpaceResult;
	bsf	status, 5	;RP0=1, select bank1
	bcf	status, 6	;RP1=0, select bank1
	movf	(AddNewUserAfterAdminConfirm@_availSpaceResult)^080h,w
	movwf	(??_AddNewUserAfterAdminConfirm+0)^080h+0
	movf	(??_AddNewUserAfterAdminConfirm+0)^080h+0,w
	movwf	(AddNewUserAfterAdminConfirm@availSpaceResult)^080h
	line	277
	
l10070:	
;main.c: 277: unsigned char AddNewUserResult = AddNewUser(availSpaceResult);
	movf	(AddNewUserAfterAdminConfirm@availSpaceResult)^080h,w
	fcall	_AddNewUser
	bsf	status, 5	;RP0=1, select bank1
	bcf	status, 6	;RP1=0, select bank1
	movwf	(??_AddNewUserAfterAdminConfirm+0)^080h+0
	movf	(??_AddNewUserAfterAdminConfirm+0)^080h+0,w
	movwf	(AddNewUserAfterAdminConfirm@AddNewUserResult)^080h
	line	278
	
l10072:	
;main.c: 278: if(AddNewUserResult == 1)
	movf	(AddNewUserAfterAdminConfirm@AddNewUserResult)^080h,w
	xorlw	01h
	skipz
	goto	u8451
	goto	u8450
u8451:
	goto	l10082
u8450:
	line	281
	
l10074:	
;main.c: 279: {
;main.c: 280: unsigned char buff[10];
;main.c: 281: LcdClear();
	fcall	_LcdClear
	line	282
	
l10076:	
;main.c: 282: LcdPrint("New User\n Created @:",0,0);
	movlw	low(STR_21|8000h)
	bcf	status, 5	;RP0=0, select bank0
	bcf	status, 6	;RP1=0, select bank0
	movwf	(?_LcdPrint)
	movlw	high(STR_21|8000h)
	movwf	((?_LcdPrint))+1
	clrf	0+(?_LcdPrint)+02h
	clrf	0+(?_LcdPrint)+03h
	fcall	_LcdPrint
	line	283
	
l10078:	
;main.c: 283: DecToStr(availSpaceResult, buff, 2);
	bsf	status, 5	;RP0=1, select bank1
	bcf	status, 6	;RP1=0, select bank1
	movf	(AddNewUserAfterAdminConfirm@availSpaceResult)^080h,w
	movwf	(??_AddNewUserAfterAdminConfirm+0)^080h+0
	clrf	((??_AddNewUserAfterAdminConfirm+0)^080h+0+1)
	clrf	((??_AddNewUserAfterAdminConfirm+0)^080h+0+2)
	clrf	((??_AddNewUserAfterAdminConfirm+0)^080h+0+3)
	movf	3+(??_AddNewUserAfterAdminConfirm+0)^080h+0,w
	bcf	status, 5	;RP0=0, select bank0
	bcf	status, 6	;RP1=0, select bank0
	movwf	(?_DecToStr+3)
	bsf	status, 5	;RP0=1, select bank1
	bcf	status, 6	;RP1=0, select bank1
	movf	2+(??_AddNewUserAfterAdminConfirm+0)^080h+0,w
	bcf	status, 5	;RP0=0, select bank0
	bcf	status, 6	;RP1=0, select bank0
	movwf	(?_DecToStr+2)
	bsf	status, 5	;RP0=1, select bank1
	bcf	status, 6	;RP1=0, select bank1
	movf	1+(??_AddNewUserAfterAdminConfirm+0)^080h+0,w
	bcf	status, 5	;RP0=0, select bank0
	bcf	status, 6	;RP1=0, select bank0
	movwf	(?_DecToStr+1)
	bsf	status, 5	;RP0=1, select bank1
	bcf	status, 6	;RP1=0, select bank1
	movf	0+(??_AddNewUserAfterAdminConfirm+0)^080h+0,w
	bcf	status, 5	;RP0=0, select bank0
	bcf	status, 6	;RP1=0, select bank0
	movwf	(?_DecToStr)

	movlw	(AddNewUserAfterAdminConfirm@buff_2228)&0ffh
	bsf	status, 5	;RP0=1, select bank1
	bcf	status, 6	;RP1=0, select bank1
	movwf	(??_AddNewUserAfterAdminConfirm+4)^080h+0
	movf	(??_AddNewUserAfterAdminConfirm+4)^080h+0,w
	bcf	status, 5	;RP0=0, select bank0
	bcf	status, 6	;RP1=0, select bank0
	movwf	(0+?_DecToStr+04h)
	movlw	(02h)
	bsf	status, 5	;RP0=1, select bank1
	bcf	status, 6	;RP1=0, select bank1
	movwf	(??_AddNewUserAfterAdminConfirm+5)^080h+0
	movf	(??_AddNewUserAfterAdminConfirm+5)^080h+0,w
	bcf	status, 5	;RP0=0, select bank0
	bcf	status, 6	;RP1=0, select bank0
	movwf	0+(?_DecToStr)+05h
	fcall	_DecToStr
	line	284
;main.c: 284: LcdPrint(buff, 1, 12);
	movlw	(AddNewUserAfterAdminConfirm@buff_2228&0ffh)
	bcf	status, 5	;RP0=0, select bank0
	bcf	status, 6	;RP1=0, select bank0
	movwf	(?_LcdPrint)
	movlw	(0x1/2)
	movwf	(?_LcdPrint+1)
	clrf	0+(?_LcdPrint)+02h
	bsf	status,0
	rlf	0+(?_LcdPrint)+02h,f
	movlw	(0Ch)
	bsf	status, 5	;RP0=1, select bank1
	bcf	status, 6	;RP1=0, select bank1
	movwf	(??_AddNewUserAfterAdminConfirm+0)^080h+0
	movf	(??_AddNewUserAfterAdminConfirm+0)^080h+0,w
	bcf	status, 5	;RP0=0, select bank0
	bcf	status, 6	;RP1=0, select bank0
	movwf	0+(?_LcdPrint)+03h
	fcall	_LcdPrint
	line	285
	
l10080:	
;main.c: 285: Delay(2);
	movlw	low(02h)
	bcf	status, 5	;RP0=0, select bank0
	bcf	status, 6	;RP1=0, select bank0
	movwf	(?_Delay)
	movlw	high(02h)
	movwf	((?_Delay))+1
	fcall	_Delay
	line	286
;main.c: 286: }
	goto	l1502
	line	287
	
l1525:	
	
l10082:	
;main.c: 287: else if(AddNewUserResult == 0xFF) return 0;
	bsf	status, 5	;RP0=1, select bank1
	bcf	status, 6	;RP1=0, select bank1
	movf	(AddNewUserAfterAdminConfirm@AddNewUserResult)^080h,w
	xorlw	0FFh
	skipz
	goto	u8461
	goto	u8460
u8461:
	goto	l10088
u8460:
	goto	l1502
	
l10084:	
;	Return value of _AddNewUserAfterAdminConfirm is never used
	goto	l1502
	
l10086:	
	goto	l1502
	line	288
	
l1527:	
	line	290
	
l10088:	
;main.c: 288: else
;main.c: 289: {
;main.c: 290: LcdClear();
	fcall	_LcdClear
	line	291
	
l10090:	
;main.c: 291: LcdPrint("Error In\n User Creation",0,0);
	movlw	low(STR_22|8000h)
	bcf	status, 5	;RP0=0, select bank0
	bcf	status, 6	;RP1=0, select bank0
	movwf	(?_LcdPrint)
	movlw	high(STR_22|8000h)
	movwf	((?_LcdPrint))+1
	clrf	0+(?_LcdPrint)+02h
	clrf	0+(?_LcdPrint)+03h
	fcall	_LcdPrint
	line	292
	
l10092:	
;main.c: 292: Delay(2);
	movlw	low(02h)
	bcf	status, 5	;RP0=0, select bank0
	bcf	status, 6	;RP1=0, select bank0
	movwf	(?_Delay)
	movlw	high(02h)
	movwf	((?_Delay))+1
	fcall	_Delay
	goto	l1502
	line	293
	
l1528:	
	goto	l1502
	
l1526:	
	line	294
;main.c: 293: }
;main.c: 294: }
	goto	l1502
	line	295
	
l1524:	
	line	297
	
l10094:	
;main.c: 295: else
;main.c: 296: {
;main.c: 297: LcdClear();
	fcall	_LcdClear
	line	298
	
l10096:	
;main.c: 298: LcdPrint("Index Out\n of bound",0,0);
	movlw	low(STR_23|8000h)
	bcf	status, 5	;RP0=0, select bank0
	bcf	status, 6	;RP1=0, select bank0
	movwf	(?_LcdPrint)
	movlw	high(STR_23|8000h)
	movwf	((?_LcdPrint))+1
	clrf	0+(?_LcdPrint)+02h
	clrf	0+(?_LcdPrint)+03h
	fcall	_LcdPrint
	line	299
	
l10098:	
;main.c: 299: Delay(2);
	movlw	low(02h)
	bcf	status, 5	;RP0=0, select bank0
	bcf	status, 6	;RP1=0, select bank0
	movwf	(?_Delay)
	movlw	high(02h)
	movwf	((?_Delay))+1
	fcall	_Delay
	goto	l1502
	line	300
	
l1529:	
	goto	l1502
	
l1523:	
	goto	l1502
	line	301
	
l1508:	
	goto	l1502
	line	302
	
l10100:	
	line	303
;main.c: 300: }
;main.c: 301: }
;main.c: 302: return 0;
;	Return value of _AddNewUserAfterAdminConfirm is never used
	
l1502:	
	return
	opt stack 0
GLOBAL	__end_of_AddNewUserAfterAdminConfirm
	__end_of_AddNewUserAfterAdminConfirm:
;; =============== function _AddNewUserAfterAdminConfirm ends ============

	signat	_AddNewUserAfterAdminConfirm,89
	global	_AlterAdminUser
psect	text1824,local,class=CODE,delta=2
global __ptext1824
__ptext1824:

;; *************** function _AlterAdminUser *****************
;; Defined at:
;;		line 137 in file "C:\Users\GauravLT\Desktop\AccessControlBy4Users\AccessControlUsingFingerSense-master\AccessControlUsingFingerSense-master\PIC16F877A_R307\main.c"
;; Parameters:    Size  Location     Type
;;  UserIndex       1    wreg     unsigned char 
;; Auto vars:     Size  Location     Type
;;  UserIndex       1    4[BANK1 ] unsigned char 
;;  NewUserResul    1    2[BANK1 ] unsigned char 
;;  UserNo          1    3[BANK1 ] unsigned char 
;;  result          1    1[BANK1 ] unsigned char 
;;  Create0thPos    1    0[BANK1 ] unsigned char 
;; Return value:  Size  Location     Type
;;                  1    wreg      unsigned char 
;; Registers used:
;;		wreg, fsr0l, fsr0h, status,2, status,0, btemp+1, pclath, cstack
;; Tracked objects:
;;		On entry : 0/0
;;		On exit  : 0/0
;;		Unchanged: 0/0
;; Data sizes:     COMMON   BANK0   BANK1   BANK3   BANK2
;;      Params:         0       0       0       0       0
;;      Locals:         0       0       5       0       0
;;      Temps:          0       2       0       0       0
;;      Totals:         0       2       5       0       0
;;Total ram usage:        7 bytes
;; Hardware stack levels used:    1
;; Hardware stack levels required when called:    7
;; This function calls:
;;		_ee_read
;;		_LcdClear
;;		_LcdPrint
;;		_HiSpeedScan0
;;		_Delay
;;		_DeleteUser
;;		_AddNewUser
;; This function is called by:
;;		_main
;; This function uses a non-reentrant model
;;
psect	text1824
	file	"C:\Users\GauravLT\Desktop\AccessControlBy4Users\AccessControlUsingFingerSense-master\AccessControlUsingFingerSense-master\PIC16F877A_R307\main.c"
	line	137
	global	__size_of_AlterAdminUser
	__size_of_AlterAdminUser	equ	__end_of_AlterAdminUser-_AlterAdminUser
	
_AlterAdminUser:	
	opt	stack 0
; Regs used in _AlterAdminUser: [wreg-fsr0h+status,2+status,0+btemp+1+pclath+cstack]
;AlterAdminUser@UserIndex stored from wreg
	bsf	status, 5	;RP0=1, select bank1
	bcf	status, 6	;RP1=0, select bank1
	movwf	(AlterAdminUser@UserIndex)^080h
	line	138
	
l9878:	
;main.c: 138: unsigned char Create0thPositionUser=1;
	clrf	(AlterAdminUser@Create0thPositionUser)^080h
	bsf	status,0
	rlf	(AlterAdminUser@Create0thPositionUser)^080h,f
	line	140
	
l9880:	
;main.c: 140: if(ee_read(UserIndex-'1') == 0x01)
	movf	(AlterAdminUser@UserIndex)^080h,w
	addlw	0CFh
	fcall	_ee_read
	xorlw	01h
	skipz
	goto	u8211
	goto	u8210
u8211:
	goto	l9932
u8210:
	line	142
	
l9882:	
;main.c: 141: {
;main.c: 142: LcdClear();
	fcall	_LcdClear
	line	143
	
l9884:	
;main.c: 143: LcdPrint("Admin Required\nPlace Finger",0,0);
	movlw	low(STR_6|8000h)
	bcf	status, 5	;RP0=0, select bank0
	bcf	status, 6	;RP1=0, select bank0
	movwf	(?_LcdPrint)
	movlw	high(STR_6|8000h)
	movwf	((?_LcdPrint))+1
	clrf	0+(?_LcdPrint)+02h
	clrf	0+(?_LcdPrint)+03h
	fcall	_LcdPrint
	line	144
	
l9886:	
;main.c: 144: Create0thPositionUser = 0;
	bsf	status, 5	;RP0=1, select bank1
	bcf	status, 6	;RP1=0, select bank1
	clrf	(AlterAdminUser@Create0thPositionUser)^080h
	line	147
	
l9888:	
;main.c: 146: unsigned char UserNo;
;main.c: 147: unsigned char result = HiSpeedScan0(&UserNo);
	movlw	(AlterAdminUser@UserNo)&0ffh
	fcall	_HiSpeedScan0
	bcf	status, 5	;RP0=0, select bank0
	bcf	status, 6	;RP1=0, select bank0
	movwf	(??_AlterAdminUser+0)+0
	movf	(??_AlterAdminUser+0)+0,w
	bsf	status, 5	;RP0=1, select bank1
	bcf	status, 6	;RP1=0, select bank1
	movwf	(AlterAdminUser@result)^080h
	line	148
	
l9890:	
;main.c: 148: if(result == 0xFF) return 0;
	movf	(AlterAdminUser@result)^080h,w
	xorlw	0FFh
	skipz
	goto	u8221
	goto	u8220
u8221:
	goto	l9896
u8220:
	goto	l1487
	
l9892:	
;	Return value of _AlterAdminUser is never used
	goto	l1487
	
l9894:	
	goto	l9932
	line	149
	
l1486:	
	line	151
	
l9896:	
;main.c: 149: else
;main.c: 150: {
;main.c: 151: if(result == 1 && (UserNo == UserIndex - '1') )
	movf	(AlterAdminUser@result)^080h,w
	xorlw	01h
	skipz
	goto	u8231
	goto	u8230
u8231:
	goto	l9924
u8230:
	
l9898:	
	movf	(AlterAdminUser@UserIndex)^080h,w
	addlw	low(0FFCFh)
	bcf	status, 5	;RP0=0, select bank0
	bcf	status, 6	;RP1=0, select bank0
	movwf	(??_AlterAdminUser+0)+0
	movlw	high(0FFCFh)
	skipnc
	movlw	(high(0FFCFh)+1)&0ffh
	movwf	((??_AlterAdminUser+0)+0)+1
	bsf	status, 5	;RP0=1, select bank1
	bcf	status, 6	;RP1=0, select bank1
	movf	(AlterAdminUser@UserNo)^080h,w
	bcf	status, 5	;RP0=0, select bank0
	bcf	status, 6	;RP1=0, select bank0
	xorwf	0+(??_AlterAdminUser+0)+0,w
	iorwf	1+(??_AlterAdminUser+0)+0,w
	skipz
	goto	u8241
	goto	u8240
u8241:
	goto	l9924
u8240:
	line	153
	
l9900:	
;main.c: 152: {
;main.c: 153: LcdClear();
	fcall	_LcdClear
	line	154
	
l9902:	
;main.c: 154: LcdPrint("Admin found",0,0);
	movlw	low(STR_7|8000h)
	bcf	status, 5	;RP0=0, select bank0
	bcf	status, 6	;RP1=0, select bank0
	movwf	(?_LcdPrint)
	movlw	high(STR_7|8000h)
	movwf	((?_LcdPrint))+1
	clrf	0+(?_LcdPrint)+02h
	clrf	0+(?_LcdPrint)+03h
	fcall	_LcdPrint
	line	155
	
l9904:	
;main.c: 155: Delay(2);
	movlw	low(02h)
	bcf	status, 5	;RP0=0, select bank0
	bcf	status, 6	;RP1=0, select bank0
	movwf	(?_Delay)
	movlw	high(02h)
	movwf	((?_Delay))+1
	fcall	_Delay
	line	156
	
l9906:	
;main.c: 156: if(DeleteUser(UserIndex-'1') == 1)
	bsf	status, 5	;RP0=1, select bank1
	bcf	status, 6	;RP1=0, select bank1
	movf	(AlterAdminUser@UserIndex)^080h,w
	addlw	0CFh
	fcall	_DeleteUser
	xorlw	01h
	skipz
	goto	u8251
	goto	u8250
u8251:
	goto	l9916
u8250:
	line	158
	
l9908:	
;main.c: 157: {
;main.c: 158: LcdClear();
	fcall	_LcdClear
	line	159
	
l9910:	
;main.c: 159: LcdPrint("Admin Deleted",0,0);
	movlw	low(STR_8|8000h)
	bcf	status, 5	;RP0=0, select bank0
	bcf	status, 6	;RP1=0, select bank0
	movwf	(?_LcdPrint)
	movlw	high(STR_8|8000h)
	movwf	((?_LcdPrint))+1
	clrf	0+(?_LcdPrint)+02h
	clrf	0+(?_LcdPrint)+03h
	fcall	_LcdPrint
	line	160
	
l9912:	
;main.c: 160: Delay(1);
	movlw	low(01h)
	bcf	status, 5	;RP0=0, select bank0
	bcf	status, 6	;RP1=0, select bank0
	movwf	(?_Delay)
	movlw	high(01h)
	movwf	((?_Delay))+1
	fcall	_Delay
	line	161
	
l9914:	
;main.c: 161: Create0thPositionUser = 1;
	bsf	status, 5	;RP0=1, select bank1
	bcf	status, 6	;RP1=0, select bank1
	clrf	(AlterAdminUser@Create0thPositionUser)^080h
	bsf	status,0
	rlf	(AlterAdminUser@Create0thPositionUser)^080h,f
	line	162
;main.c: 162: }
	goto	l9932
	line	163
	
l1490:	
	line	165
	
l9916:	
;main.c: 163: else
;main.c: 164: {
;main.c: 165: LcdClear();
	fcall	_LcdClear
	line	166
	
l9918:	
;main.c: 166: LcdPrint("Can't Delete\n Admin",0,0);
	movlw	low(STR_9|8000h)
	bcf	status, 5	;RP0=0, select bank0
	bcf	status, 6	;RP1=0, select bank0
	movwf	(?_LcdPrint)
	movlw	high(STR_9|8000h)
	movwf	((?_LcdPrint))+1
	clrf	0+(?_LcdPrint)+02h
	clrf	0+(?_LcdPrint)+03h
	fcall	_LcdPrint
	line	167
	
l9920:	
;main.c: 167: Delay(2);
	movlw	low(02h)
	bcf	status, 5	;RP0=0, select bank0
	bcf	status, 6	;RP1=0, select bank0
	movwf	(?_Delay)
	movlw	high(02h)
	movwf	((?_Delay))+1
	fcall	_Delay
	goto	l1487
	line	168
	
l9922:	
;main.c: 168: return 0;
;	Return value of _AlterAdminUser is never used
	goto	l1487
	line	169
	
l1491:	
	line	170
;main.c: 169: }
;main.c: 170: }
	goto	l9932
	line	171
	
l1489:	
	line	173
	
l9924:	
;main.c: 171: else
;main.c: 172: {
;main.c: 173: LcdClear();
	fcall	_LcdClear
	line	174
	
l9926:	
;main.c: 174: LcdPrint("Admin Not\n  found",0,0);
	movlw	low(STR_10|8000h)
	bcf	status, 5	;RP0=0, select bank0
	bcf	status, 6	;RP1=0, select bank0
	movwf	(?_LcdPrint)
	movlw	high(STR_10|8000h)
	movwf	((?_LcdPrint))+1
	clrf	0+(?_LcdPrint)+02h
	clrf	0+(?_LcdPrint)+03h
	fcall	_LcdPrint
	line	175
	
l9928:	
;main.c: 175: Delay(2);
	movlw	low(02h)
	bcf	status, 5	;RP0=0, select bank0
	bcf	status, 6	;RP1=0, select bank0
	movwf	(?_Delay)
	movlw	high(02h)
	movwf	((?_Delay))+1
	fcall	_Delay
	goto	l1487
	line	176
	
l9930:	
;main.c: 176: return 0;
;	Return value of _AlterAdminUser is never used
	goto	l1487
	line	177
	
l1492:	
	goto	l9932
	line	178
	
l1488:	
	goto	l9932
	line	179
	
l1485:	
	line	180
	
l9932:	
;main.c: 177: }
;main.c: 178: }
;main.c: 179: }
;main.c: 180: if(Create0thPositionUser == 1)
	bsf	status, 5	;RP0=1, select bank1
	bcf	status, 6	;RP1=0, select bank1
	movf	(AlterAdminUser@Create0thPositionUser)^080h,w
	xorlw	01h
	skipz
	goto	u8261
	goto	u8260
u8261:
	goto	l1487
u8260:
	line	182
	
l9934:	
;main.c: 181: {
;main.c: 182: LcdClear();
	fcall	_LcdClear
	line	183
	
l9936:	
;main.c: 183: LcdPrint("Plz Register\n new Admin",0,0);
	movlw	low(STR_11|8000h)
	bcf	status, 5	;RP0=0, select bank0
	bcf	status, 6	;RP1=0, select bank0
	movwf	(?_LcdPrint)
	movlw	high(STR_11|8000h)
	movwf	((?_LcdPrint))+1
	clrf	0+(?_LcdPrint)+02h
	clrf	0+(?_LcdPrint)+03h
	fcall	_LcdPrint
	line	184
	
l9938:	
;main.c: 184: Delay(2);
	movlw	low(02h)
	bcf	status, 5	;RP0=0, select bank0
	bcf	status, 6	;RP1=0, select bank0
	movwf	(?_Delay)
	movlw	high(02h)
	movwf	((?_Delay))+1
	fcall	_Delay
	line	185
	
l9940:	
;main.c: 185: LcdClear();
	fcall	_LcdClear
	line	186
	
l9942:	
;main.c: 186: LcdPrint("Place Finger",0,0);
	movlw	low(STR_12|8000h)
	bcf	status, 5	;RP0=0, select bank0
	bcf	status, 6	;RP1=0, select bank0
	movwf	(?_LcdPrint)
	movlw	high(STR_12|8000h)
	movwf	((?_LcdPrint))+1
	clrf	0+(?_LcdPrint)+02h
	clrf	0+(?_LcdPrint)+03h
	fcall	_LcdPrint
	line	187
;main.c: 187: Delay(2);
	movlw	low(02h)
	bcf	status, 5	;RP0=0, select bank0
	bcf	status, 6	;RP1=0, select bank0
	movwf	(?_Delay)
	movlw	high(02h)
	movwf	((?_Delay))+1
	fcall	_Delay
	line	188
	
l9944:	
;main.c: 188: unsigned char NewUserResult = AddNewUser(UserIndex-'1');
	bsf	status, 5	;RP0=1, select bank1
	bcf	status, 6	;RP1=0, select bank1
	movf	(AlterAdminUser@UserIndex)^080h,w
	addlw	0CFh
	fcall	_AddNewUser
	bcf	status, 5	;RP0=0, select bank0
	bcf	status, 6	;RP1=0, select bank0
	movwf	(??_AlterAdminUser+0)+0
	movf	(??_AlterAdminUser+0)+0,w
	bsf	status, 5	;RP0=1, select bank1
	bcf	status, 6	;RP1=0, select bank1
	movwf	(AlterAdminUser@NewUserResult)^080h
	line	189
	
l9946:	
;main.c: 189: if(NewUserResult == 1)
	movf	(AlterAdminUser@NewUserResult)^080h,w
	xorlw	01h
	skipz
	goto	u8271
	goto	u8270
u8271:
	goto	l9954
u8270:
	line	191
	
l9948:	
;main.c: 190: {
;main.c: 191: LcdClear();
	fcall	_LcdClear
	line	192
	
l9950:	
;main.c: 192: LcdPrint("Admin \n  Registered",0,0);
	movlw	low(STR_13|8000h)
	bcf	status, 5	;RP0=0, select bank0
	bcf	status, 6	;RP1=0, select bank0
	movwf	(?_LcdPrint)
	movlw	high(STR_13|8000h)
	movwf	((?_LcdPrint))+1
	clrf	0+(?_LcdPrint)+02h
	clrf	0+(?_LcdPrint)+03h
	fcall	_LcdPrint
	line	193
	
l9952:	
;main.c: 193: Delay(2);
	movlw	low(02h)
	bcf	status, 5	;RP0=0, select bank0
	bcf	status, 6	;RP1=0, select bank0
	movwf	(?_Delay)
	movlw	high(02h)
	movwf	((?_Delay))+1
	fcall	_Delay
	line	194
;main.c: 194: }
	goto	l1487
	line	195
	
l1494:	
	
l9954:	
;main.c: 195: else if(NewUserResult == 0xFF) return 0;
	bsf	status, 5	;RP0=1, select bank1
	bcf	status, 6	;RP1=0, select bank1
	movf	(AlterAdminUser@NewUserResult)^080h,w
	xorlw	0FFh
	skipz
	goto	u8281
	goto	u8280
u8281:
	goto	l9960
u8280:
	goto	l1487
	
l9956:	
;	Return value of _AlterAdminUser is never used
	goto	l1487
	
l9958:	
	goto	l1487
	line	196
	
l1496:	
	line	198
	
l9960:	
;main.c: 196: else
;main.c: 197: {
;main.c: 198: LcdClear();
	fcall	_LcdClear
	line	199
	
l9962:	
;main.c: 199: LcdPrint("Error In\n  Registeration",0,0);
	movlw	low(STR_14|8000h)
	bcf	status, 5	;RP0=0, select bank0
	bcf	status, 6	;RP1=0, select bank0
	movwf	(?_LcdPrint)
	movlw	high(STR_14|8000h)
	movwf	((?_LcdPrint))+1
	clrf	0+(?_LcdPrint)+02h
	clrf	0+(?_LcdPrint)+03h
	fcall	_LcdPrint
	line	200
	
l9964:	
;main.c: 200: Delay(2);
	movlw	low(02h)
	bcf	status, 5	;RP0=0, select bank0
	bcf	status, 6	;RP1=0, select bank0
	movwf	(?_Delay)
	movlw	high(02h)
	movwf	((?_Delay))+1
	fcall	_Delay
	goto	l1487
	line	201
	
l1497:	
	goto	l1487
	
l1495:	
	goto	l1487
	line	203
	
l1493:	
	goto	l1487
	line	204
	
l9966:	
	line	205
;main.c: 201: }
;main.c: 203: }
;main.c: 204: return 0;
;	Return value of _AlterAdminUser is never used
	
l1487:	
	return
	opt stack 0
GLOBAL	__end_of_AlterAdminUser
	__end_of_AlterAdminUser:
;; =============== function _AlterAdminUser ends ============

	signat	_AlterAdminUser,4217
	global	_ControlAccess
psect	text1825,local,class=CODE,delta=2
global __ptext1825
__ptext1825:

;; *************** function _ControlAccess *****************
;; Defined at:
;;		line 77 in file "C:\Users\GauravLT\Desktop\AccessControlBy4Users\AccessControlUsingFingerSense-master\AccessControlUsingFingerSense-master\PIC16F877A_R307\main.c"
;; Parameters:    Size  Location     Type
;;		None
;; Auto vars:     Size  Location     Type
;;  c               1    6[BANK1 ] unsigned char 
;;  SelectedUser    4    1[BANK1 ] unsigned char [4]
;;  UserNo          1    7[BANK1 ] unsigned char 
;;  result          1    5[BANK1 ] unsigned char 
;;  SwitchRelay     1    0[BANK1 ] unsigned char 
;; Return value:  Size  Location     Type
;;                  1    wreg      unsigned char 
;; Registers used:
;;		wreg, fsr0l, fsr0h, status,2, status,0, btemp+1, pclath, cstack
;; Tracked objects:
;;		On entry : 0/0
;;		On exit  : 0/0
;;		Unchanged: 0/0
;; Data sizes:     COMMON   BANK0   BANK1   BANK3   BANK2
;;      Params:         0       0       0       0       0
;;      Locals:         0       0       8       0       0
;;      Temps:          0       3       0       0       0
;;      Totals:         0       3       8       0       0
;;Total ram usage:       11 bytes
;; Hardware stack levels used:    1
;; Hardware stack levels required when called:    7
;; This function calls:
;;		_LcdClear
;;		_LcdPrint
;;		_memset1
;;		_HiSpeedScan0
;;		___awdiv
;;		___bmul
;;		_Delay
;; This function is called by:
;;		_main
;; This function uses a non-reentrant model
;;
psect	text1825
	file	"C:\Users\GauravLT\Desktop\AccessControlBy4Users\AccessControlUsingFingerSense-master\AccessControlUsingFingerSense-master\PIC16F877A_R307\main.c"
	line	77
	global	__size_of_ControlAccess
	__size_of_ControlAccess	equ	__end_of_ControlAccess-_ControlAccess
	
_ControlAccess:	
	opt	stack 0
; Regs used in _ControlAccess: [wreg-fsr0h+status,2+status,0+btemp+1+pclath+cstack]
	line	78
	
l9806:	
;main.c: 78: unsigned char UserNo=0;
	bsf	status, 5	;RP0=1, select bank1
	bcf	status, 6	;RP1=0, select bank1
	clrf	(ControlAccess@UserNo)^080h
	line	79
;main.c: 79: unsigned char result=0;
	clrf	(ControlAccess@result)^080h
	line	81
	
l9808:	
;main.c: 80: unsigned char SelectedUserArr[4];
;main.c: 81: unsigned char SwitchRelay=1;
	clrf	(ControlAccess@SwitchRelay)^080h
	bsf	status,0
	rlf	(ControlAccess@SwitchRelay)^080h,f
	line	83
	
l9810:	
;main.c: 83: RB5=0;
	bcf	status, 5	;RP0=0, select bank0
	bcf	status, 6	;RP1=0, select bank0
	bcf	(53/8),(53)&7
	line	84
	
l9812:	
;main.c: 84: LcdClear();
	fcall	_LcdClear
	line	85
	
l9814:	
;main.c: 85: LcdPrint("Place Finger", 0,0);
	movlw	low(STR_5|8000h)
	bcf	status, 5	;RP0=0, select bank0
	bcf	status, 6	;RP1=0, select bank0
	movwf	(?_LcdPrint)
	movlw	high(STR_5|8000h)
	movwf	((?_LcdPrint))+1
	clrf	0+(?_LcdPrint)+02h
	clrf	0+(?_LcdPrint)+03h
	fcall	_LcdPrint
	line	86
	
l9816:	
;main.c: 86: memset1(SelectedUserArr, 0xFF, sizeof(SelectedUserArr));
	movlw	(ControlAccess@SelectedUserArr&0ffh)
	bcf	status, 5	;RP0=0, select bank0
	bcf	status, 6	;RP1=0, select bank0
	movwf	(?_memset1)
	movlw	(0x1/2)
	movwf	(?_memset1+1)
	movlw	(0FFh)
	movwf	(??_ControlAccess+0)+0
	movf	(??_ControlAccess+0)+0,w
	movwf	0+(?_memset1)+02h
	movlw	low(04h)
	movwf	0+(?_memset1)+03h
	movlw	high(04h)
	movwf	(0+(?_memset1)+03h)+1
	fcall	_memset1
	goto	l9818
	line	87
;main.c: 87: while(1)
	
l1469:	
	line	89
	
l9818:	
;main.c: 88: {
;main.c: 89: result=HiSpeedScan0(&UserNo);
	movlw	(ControlAccess@UserNo)&0ffh
	fcall	_HiSpeedScan0
	bcf	status, 5	;RP0=0, select bank0
	bcf	status, 6	;RP1=0, select bank0
	movwf	(??_ControlAccess+0)+0
	movf	(??_ControlAccess+0)+0,w
	bsf	status, 5	;RP0=1, select bank1
	bcf	status, 6	;RP1=0, select bank1
	movwf	(ControlAccess@result)^080h
	line	91
	
l9820:	
;main.c: 91: if(result == 0xFF) break;
	movf	(ControlAccess@result)^080h,w
	xorlw	0FFh
	skipz
	goto	u8091
	goto	u8090
u8091:
	goto	l9826
u8090:
	goto	l1479
	
l9822:	
	goto	l1479
	
l9824:	
	goto	l9818
	line	92
	
l1470:	
	
l9826:	
;main.c: 92: else if(result == 0x01)
	movf	(ControlAccess@result)^080h,w
	xorlw	01h
	skipz
	goto	u8101
	goto	u8100
u8101:
	goto	l9870
u8100:
	line	94
	
l9828:	
;main.c: 93: {
;main.c: 94: if(UserNo>=0 && UserNo<14)
	movlw	(0Eh)
	subwf	(ControlAccess@UserNo)^080h,w
	skipnc
	goto	u8111
	goto	u8110
u8111:
	goto	l9818
u8110:
	line	96
	
l9830:	
;main.c: 95: {
;main.c: 96: if(UserNo>=2 && UserNo<14)
	movlw	(02h)
	subwf	(ControlAccess@UserNo)^080h,w
	skipc
	goto	u8121
	goto	u8120
u8121:
	goto	l9858
u8120:
	
l9832:	
	movlw	(0Eh)
	subwf	(ControlAccess@UserNo)^080h,w
	skipnc
	goto	u8131
	goto	u8130
u8131:
	goto	l9858
u8130:
	line	98
	
l9834:	
;main.c: 97: {
;main.c: 98: unsigned char c =0;
	clrf	(ControlAccess@c)^080h
	line	99
	
l9836:	
;main.c: 99: UserNo = UserNo - 2;
	movf	(ControlAccess@UserNo)^080h,w
	addlw	0FEh
	bcf	status, 5	;RP0=0, select bank0
	bcf	status, 6	;RP1=0, select bank0
	movwf	(??_ControlAccess+0)+0
	movf	(??_ControlAccess+0)+0,w
	bsf	status, 5	;RP0=1, select bank1
	bcf	status, 6	;RP1=0, select bank1
	movwf	(ControlAccess@UserNo)^080h
	line	100
	
l9838:	
;main.c: 100: c = UserNo/3;
	movlw	low(03h)
	bcf	status, 5	;RP0=0, select bank0
	bcf	status, 6	;RP1=0, select bank0
	movwf	(?___awdiv)
	movlw	high(03h)
	movwf	((?___awdiv))+1
	bsf	status, 5	;RP0=1, select bank1
	bcf	status, 6	;RP1=0, select bank1
	movf	(ControlAccess@UserNo)^080h,w
	bcf	status, 5	;RP0=0, select bank0
	bcf	status, 6	;RP1=0, select bank0
	movwf	(??_ControlAccess+0)+0
	clrf	(??_ControlAccess+0)+0+1
	movf	0+(??_ControlAccess+0)+0,w
	movwf	0+(?___awdiv)+02h
	movf	1+(??_ControlAccess+0)+0,w
	movwf	1+(?___awdiv)+02h
	fcall	___awdiv
	bcf	status, 5	;RP0=0, select bank0
	bcf	status, 6	;RP1=0, select bank0
	movf	(0+(?___awdiv)),w
	movwf	(??_ControlAccess+2)+0
	movf	(??_ControlAccess+2)+0,w
	bsf	status, 5	;RP0=1, select bank1
	bcf	status, 6	;RP1=0, select bank1
	movwf	(ControlAccess@c)^080h
	line	101
	
l9840:	
;main.c: 101: SwitchRelay = 0;
	clrf	(ControlAccess@SwitchRelay)^080h
	line	102
	
l9842:	
;main.c: 102: SelectedUserArr[c] = UserNo;
	movf	(ControlAccess@UserNo)^080h,w
	bcf	status, 5	;RP0=0, select bank0
	bcf	status, 6	;RP1=0, select bank0
	movwf	(??_ControlAccess+0)+0
	bsf	status, 5	;RP0=1, select bank1
	bcf	status, 6	;RP1=0, select bank1
	movf	(ControlAccess@c)^080h,w
	addlw	ControlAccess@SelectedUserArr&0ffh
	movwf	fsr0
	bcf	status, 5	;RP0=0, select bank0
	bcf	status, 6	;RP1=0, select bank0
	movf	(??_ControlAccess+0)+0,w
	bcf	status, 7	;select IRP bank1
	movwf	indf
	line	104
	
l9844:	
;main.c: 104: if(SelectedUserArr[c]!=0xFF) LcdPrint(&UserNoArr[SelectedUserArr[c]][0], 1,3+c*3);
	bsf	status, 5	;RP0=1, select bank1
	bcf	status, 6	;RP1=0, select bank1
	movf	(ControlAccess@c)^080h,w
	addlw	ControlAccess@SelectedUserArr&0ffh
	movwf	fsr0
	movf	indf,w
	xorlw	0FFh
	skipnz
	goto	u8141
	goto	u8140
u8141:
	goto	l9848
u8140:
	
l9846:	
	movlw	(03h)
	bcf	status, 5	;RP0=0, select bank0
	bcf	status, 6	;RP1=0, select bank0
	movwf	(??_ControlAccess+0)+0
	movf	(??_ControlAccess+0)+0,w
	movwf	(?___bmul)
	bsf	status, 5	;RP0=1, select bank1
	bcf	status, 6	;RP1=0, select bank1
	movf	(ControlAccess@c)^080h,w
	addlw	ControlAccess@SelectedUserArr&0ffh
	movwf	fsr0
	movf	indf,w
	fcall	___bmul
	addlw	low(_UserNoArr|8000h)
	bcf	status, 5	;RP0=0, select bank0
	bcf	status, 6	;RP1=0, select bank0
	movwf	(?_LcdPrint)
	movlw	high(_UserNoArr|8000h)
	skipnc
	addlw	1
	movwf	1+((?_LcdPrint))
	clrf	0+(?_LcdPrint)+02h
	bsf	status,0
	rlf	0+(?_LcdPrint)+02h,f
	movlw	(03h)
	movwf	(??_ControlAccess+1)+0
	movf	(??_ControlAccess+1)+0,w
	movwf	(?___bmul)
	bsf	status, 5	;RP0=1, select bank1
	bcf	status, 6	;RP1=0, select bank1
	movf	(ControlAccess@c)^080h,w
	fcall	___bmul
	addlw	03h
	bcf	status, 5	;RP0=0, select bank0
	bcf	status, 6	;RP1=0, select bank0
	movwf	(??_ControlAccess+2)+0
	movf	(??_ControlAccess+2)+0,w
	movwf	0+(?_LcdPrint)+03h
	fcall	_LcdPrint
	goto	l9848
	
l1476:	
	line	106
	
l9848:	
;main.c: 105: if(SelectedUserArr[0] != 0xFF && SelectedUserArr[1] != 0xFF &&
;main.c: 106: SelectedUserArr[2] != 0xFF && SelectedUserArr[3] != 0xFF)
	bsf	status, 5	;RP0=1, select bank1
	bcf	status, 6	;RP1=0, select bank1
	movf	(ControlAccess@SelectedUserArr)^080h,w
	xorlw	0FFh
	skipnz
	goto	u8151
	goto	u8150
u8151:
	goto	l9858
u8150:
	
l9850:	
	movf	0+(ControlAccess@SelectedUserArr)^080h+01h,w
	xorlw	0FFh
	skipnz
	goto	u8161
	goto	u8160
u8161:
	goto	l9858
u8160:
	
l9852:	
	movf	0+(ControlAccess@SelectedUserArr)^080h+02h,w
	xorlw	0FFh
	skipnz
	goto	u8171
	goto	u8170
u8171:
	goto	l9858
u8170:
	
l9854:	
	movf	0+(ControlAccess@SelectedUserArr)^080h+03h,w
	xorlw	0FFh
	skipnz
	goto	u8181
	goto	u8180
u8181:
	goto	l9858
u8180:
	line	108
	
l9856:	
;main.c: 107: {
;main.c: 108: SwitchRelay = 1;
	clrf	(ControlAccess@SwitchRelay)^080h
	bsf	status,0
	rlf	(ControlAccess@SwitchRelay)^080h,f
	goto	l9858
	line	109
	
l1477:	
	goto	l9858
	line	110
	
l1475:	
	line	111
	
l9858:	
;main.c: 109: }
;main.c: 110: }
;main.c: 111: if(SwitchRelay == 1)
	movf	(ControlAccess@SwitchRelay)^080h,w
	xorlw	01h
	skipz
	goto	u8191
	goto	u8190
u8191:
	goto	l9868
u8190:
	line	113
	
l9860:	
;main.c: 112: {
;main.c: 113: RB1 = 1;
	bcf	status, 5	;RP0=0, select bank0
	bcf	status, 6	;RP1=0, select bank0
	bsf	(49/8),(49)&7
	line	114
	
l9862:	
;main.c: 114: Delay(3);
	movlw	low(03h)
	movwf	(?_Delay)
	movlw	high(03h)
	movwf	((?_Delay))+1
	fcall	_Delay
	line	115
	
l9864:	
;main.c: 115: RB1 = 0;
	bcf	status, 5	;RP0=0, select bank0
	bcf	status, 6	;RP1=0, select bank0
	bcf	(49/8),(49)&7
	goto	l1479
	line	116
	
l9866:	
;main.c: 116: return;
	goto	l1479
	line	117
	
l1478:	
	line	118
	
l9868:	
;main.c: 117: }
;main.c: 118: Delay(3);
	movlw	low(03h)
	bcf	status, 5	;RP0=0, select bank0
	movwf	(?_Delay)
	movlw	high(03h)
	movwf	((?_Delay))+1
	fcall	_Delay
	goto	l9818
	line	119
	
l1474:	
	line	120
;main.c: 119: }
;main.c: 120: }
	goto	l9818
	line	121
	
l1473:	
	
l9870:	
;main.c: 121: else if(result == 0x00)
	bsf	status, 5	;RP0=1, select bank1
	bcf	status, 6	;RP1=0, select bank1
	movf	(ControlAccess@result)^080h,f
	skipz
	goto	u8201
	goto	u8200
u8201:
	goto	l9818
u8200:
	line	125
	
l9872:	
;main.c: 122: {
;main.c: 125: RB5=1;
	bcf	status, 5	;RP0=0, select bank0
	bcf	status, 6	;RP1=0, select bank0
	bsf	(53/8),(53)&7
	line	126
	
l9874:	
;main.c: 126: Delay(1);
	movlw	low(01h)
	movwf	(?_Delay)
	movlw	high(01h)
	movwf	((?_Delay))+1
	fcall	_Delay
	line	128
	
l9876:	
;main.c: 128: RB5=0;
	bcf	status, 5	;RP0=0, select bank0
	bcf	status, 6	;RP1=0, select bank0
	bcf	(53/8),(53)&7
	goto	l9818
	line	130
	
l1481:	
	goto	l9818
	line	131
	
l1480:	
	goto	l9818
	
l1472:	
	goto	l9818
	
l1482:	
	line	87
	goto	l9818
	
l1471:	
	line	133
;main.c: 130: }
;main.c: 131: }
;main.c: 132: return 0;
;	Return value of _ControlAccess is never used
	
l1479:	
	return
	opt stack 0
GLOBAL	__end_of_ControlAccess
	__end_of_ControlAccess:
;; =============== function _ControlAccess ends ============

	signat	_ControlAccess,89
	global	_EraseAllUsersAfterAdminConfirm
psect	text1826,local,class=CODE,delta=2
global __ptext1826
__ptext1826:

;; *************** function _EraseAllUsersAfterAdminConfirm *****************
;; Defined at:
;;		line 34 in file "C:\Users\GauravLT\Desktop\AccessControlBy4Users\AccessControlUsingFingerSense-master\AccessControlUsingFingerSense-master\PIC16F877A_R307\main.c"
;; Parameters:    Size  Location     Type
;;		None
;; Auto vars:     Size  Location     Type
;;  UserNo          1   78[BANK0 ] unsigned char 
;;  result          1   77[BANK0 ] unsigned char 
;;  isEraseAllUs    1   76[BANK0 ] unsigned char 
;; Return value:  Size  Location     Type
;;                  1    wreg      unsigned char 
;; Registers used:
;;		wreg, fsr0l, fsr0h, status,2, status,0, btemp+1, pclath, cstack
;; Tracked objects:
;;		On entry : 0/0
;;		On exit  : 0/0
;;		Unchanged: 0/0
;; Data sizes:     COMMON   BANK0   BANK1   BANK3   BANK2
;;      Params:         0       0       0       0       0
;;      Locals:         0       3       0       0       0
;;      Temps:          0       1       0       0       0
;;      Totals:         0       4       0       0       0
;;Total ram usage:        4 bytes
;; Hardware stack levels used:    1
;; Hardware stack levels required when called:    7
;; This function calls:
;;		_ee_read
;;		_LcdClear
;;		_LcdPrint
;;		_HiSpeedScan0
;;		_Delay
;;		_EraseAllUsers
;;		_ee_eraseNPos
;;		_ee_write
;; This function is called by:
;;		_main
;; This function uses a non-reentrant model
;;
psect	text1826
	file	"C:\Users\GauravLT\Desktop\AccessControlBy4Users\AccessControlUsingFingerSense-master\AccessControlUsingFingerSense-master\PIC16F877A_R307\main.c"
	line	34
	global	__size_of_EraseAllUsersAfterAdminConfirm
	__size_of_EraseAllUsersAfterAdminConfirm	equ	__end_of_EraseAllUsersAfterAdminConfirm-_EraseAllUsersAfterAdminConfirm
	
_EraseAllUsersAfterAdminConfirm:	
	opt	stack 0
; Regs used in _EraseAllUsersAfterAdminConfirm: [wreg-fsr0h+status,2+status,0+btemp+1+pclath+cstack]
	line	35
	
l9752:	
;main.c: 35: unsigned char isEraseAllUsers=1;
	bcf	status, 5	;RP0=0, select bank0
	bcf	status, 6	;RP1=0, select bank0
	clrf	(EraseAllUsersAfterAdminConfirm@isEraseAllUsers)
	bsf	status,0
	rlf	(EraseAllUsersAfterAdminConfirm@isEraseAllUsers),f
	line	36
	
l9754:	
;main.c: 36: if(ee_read(0x00) == 0x01)
	movlw	(0)
	fcall	_ee_read
	xorlw	01h
	skipz
	goto	u8031
	goto	u8030
u8031:
	goto	l9792
u8030:
	line	38
	
l9756:	
;main.c: 37: {
;main.c: 38: LcdClear();
	fcall	_LcdClear
	line	39
	
l9758:	
;main.c: 39: LcdPrint("Admin Required\nPlace Finger",0,0);
	movlw	low(STR_1|8000h)
	bcf	status, 5	;RP0=0, select bank0
	bcf	status, 6	;RP1=0, select bank0
	movwf	(?_LcdPrint)
	movlw	high(STR_1|8000h)
	movwf	((?_LcdPrint))+1
	clrf	0+(?_LcdPrint)+02h
	clrf	0+(?_LcdPrint)+03h
	fcall	_LcdPrint
	line	40
	
l9760:	
;main.c: 40: isEraseAllUsers = 0;
	bcf	status, 5	;RP0=0, select bank0
	bcf	status, 6	;RP1=0, select bank0
	clrf	(EraseAllUsersAfterAdminConfirm@isEraseAllUsers)
	line	43
	
l9762:	
;main.c: 42: unsigned char UserNo;
;main.c: 43: unsigned char result = HiSpeedScan0(&UserNo);
	movlw	(EraseAllUsersAfterAdminConfirm@UserNo)&0ffh
	fcall	_HiSpeedScan0
	bcf	status, 5	;RP0=0, select bank0
	bcf	status, 6	;RP1=0, select bank0
	movwf	(??_EraseAllUsersAfterAdminConfirm+0)+0
	movf	(??_EraseAllUsersAfterAdminConfirm+0)+0,w
	movwf	(EraseAllUsersAfterAdminConfirm@result)
	line	44
	
l9764:	
;main.c: 44: if(result == 0xFF) return 0;
	movf	(EraseAllUsersAfterAdminConfirm@result),w
	xorlw	0FFh
	skipz
	goto	u8041
	goto	u8040
u8041:
	goto	l9770
u8040:
	goto	l1460
	
l9766:	
;	Return value of _EraseAllUsersAfterAdminConfirm is never used
	goto	l1460
	
l9768:	
	goto	l9792
	line	45
	
l1459:	
	line	47
	
l9770:	
;main.c: 45: else
;main.c: 46: {
;main.c: 47: if(result == 1 && (UserNo == 0 || UserNo == 1))
	movf	(EraseAllUsersAfterAdminConfirm@result),w
	xorlw	01h
	skipz
	goto	u8051
	goto	u8050
u8051:
	goto	l9784
u8050:
	
l9772:	
	movf	(EraseAllUsersAfterAdminConfirm@UserNo),w
	skipz
	goto	u8060
	goto	l9776
u8060:
	
l9774:	
	movf	(EraseAllUsersAfterAdminConfirm@UserNo),w
	xorlw	01h
	skipz
	goto	u8071
	goto	u8070
u8071:
	goto	l9784
u8070:
	goto	l9776
	
l1464:	
	line	49
	
l9776:	
;main.c: 48: {
;main.c: 49: LcdClear();
	fcall	_LcdClear
	line	50
	
l9778:	
;main.c: 50: LcdPrint("Admin found",0,0);
	movlw	low(STR_2|8000h)
	bcf	status, 5	;RP0=0, select bank0
	bcf	status, 6	;RP1=0, select bank0
	movwf	(?_LcdPrint)
	movlw	high(STR_2|8000h)
	movwf	((?_LcdPrint))+1
	clrf	0+(?_LcdPrint)+02h
	clrf	0+(?_LcdPrint)+03h
	fcall	_LcdPrint
	line	51
	
l9780:	
;main.c: 51: Delay(2);
	movlw	low(02h)
	bcf	status, 5	;RP0=0, select bank0
	bcf	status, 6	;RP1=0, select bank0
	movwf	(?_Delay)
	movlw	high(02h)
	movwf	((?_Delay))+1
	fcall	_Delay
	line	52
	
l9782:	
;main.c: 52: isEraseAllUsers = 1;
	bcf	status, 5	;RP0=0, select bank0
	bcf	status, 6	;RP1=0, select bank0
	clrf	(EraseAllUsersAfterAdminConfirm@isEraseAllUsers)
	bsf	status,0
	rlf	(EraseAllUsersAfterAdminConfirm@isEraseAllUsers),f
	line	53
;main.c: 53: }
	goto	l9792
	line	54
	
l1462:	
	line	56
	
l9784:	
;main.c: 54: else
;main.c: 55: {
;main.c: 56: LcdClear();
	fcall	_LcdClear
	line	57
	
l9786:	
;main.c: 57: LcdPrint("Admin Not\n  found",0,0);
	movlw	low(STR_3|8000h)
	bcf	status, 5	;RP0=0, select bank0
	bcf	status, 6	;RP1=0, select bank0
	movwf	(?_LcdPrint)
	movlw	high(STR_3|8000h)
	movwf	((?_LcdPrint))+1
	clrf	0+(?_LcdPrint)+02h
	clrf	0+(?_LcdPrint)+03h
	fcall	_LcdPrint
	line	58
	
l9788:	
;main.c: 58: Delay(2);
	movlw	low(02h)
	bcf	status, 5	;RP0=0, select bank0
	bcf	status, 6	;RP1=0, select bank0
	movwf	(?_Delay)
	movlw	high(02h)
	movwf	((?_Delay))+1
	fcall	_Delay
	goto	l1460
	line	59
	
l9790:	
;main.c: 59: return 0;
;	Return value of _EraseAllUsersAfterAdminConfirm is never used
	goto	l1460
	line	60
	
l1465:	
	goto	l9792
	line	61
	
l1461:	
	goto	l9792
	line	62
	
l1458:	
	line	63
	
l9792:	
;main.c: 60: }
;main.c: 61: }
;main.c: 62: }
;main.c: 63: if(isEraseAllUsers == 1)
	bcf	status, 5	;RP0=0, select bank0
	bcf	status, 6	;RP1=0, select bank0
	movf	(EraseAllUsersAfterAdminConfirm@isEraseAllUsers),w
	xorlw	01h
	skipz
	goto	u8081
	goto	u8080
u8081:
	goto	l1460
u8080:
	line	65
	
l9794:	
;main.c: 64: {
;main.c: 65: EraseAllUsers();
	fcall	_EraseAllUsers
	line	66
	
l9796:	
;main.c: 66: ee_eraseNPos(12);
	movlw	(0Ch)
	fcall	_ee_eraseNPos
	line	67
	
l9798:	
;main.c: 67: ee_write(30,0x00);
	bcf	status, 5	;RP0=0, select bank0
	bcf	status, 6	;RP1=0, select bank0
	clrf	(?_ee_write)
	movlw	(01Eh)
	fcall	_ee_write
	line	69
;main.c: 69: LcdClear();
	fcall	_LcdClear
	line	70
	
l9800:	
;main.c: 70: LcdPrint("All Users\n Deleted",0,0);
	movlw	low(STR_4|8000h)
	bcf	status, 5	;RP0=0, select bank0
	bcf	status, 6	;RP1=0, select bank0
	movwf	(?_LcdPrint)
	movlw	high(STR_4|8000h)
	movwf	((?_LcdPrint))+1
	clrf	0+(?_LcdPrint)+02h
	clrf	0+(?_LcdPrint)+03h
	fcall	_LcdPrint
	line	71
	
l9802:	
;main.c: 71: Delay(2);
	movlw	low(02h)
	bcf	status, 5	;RP0=0, select bank0
	bcf	status, 6	;RP1=0, select bank0
	movwf	(?_Delay)
	movlw	high(02h)
	movwf	((?_Delay))+1
	fcall	_Delay
	goto	l1460
	line	72
	
l1466:	
	goto	l1460
	line	73
	
l9804:	
	line	74
;main.c: 72: }
;main.c: 73: return 0;
;	Return value of _EraseAllUsersAfterAdminConfirm is never used
	
l1460:	
	return
	opt stack 0
GLOBAL	__end_of_EraseAllUsersAfterAdminConfirm
	__end_of_EraseAllUsersAfterAdminConfirm:
;; =============== function _EraseAllUsersAfterAdminConfirm ends ============

	signat	_EraseAllUsersAfterAdminConfirm,89
	global	_menu
psect	text1827,local,class=CODE,delta=2
global __ptext1827
__ptext1827:

;; *************** function _menu *****************
;; Defined at:
;;		line 420 in file "C:\Users\GauravLT\Desktop\AccessControlBy4Users\AccessControlUsingFingerSense-master\AccessControlUsingFingerSense-master\PIC16F877A_R307\main.c"
;; Parameters:    Size  Location     Type
;;  s               2   19[BANK0 ] PTR const unsigned char 
;;		 -> STR_37(29), STR_36(33), STR_35(26), STR_34(30), 
;;		 -> STR_33(30), 
;; Auto vars:     Size  Location     Type
;;  keyHit          1   22[BANK0 ] unsigned char 
;; Return value:  Size  Location     Type
;;                  1    wreg      unsigned char 
;; Registers used:
;;		wreg, fsr0l, fsr0h, status,2, status,0, btemp+1, pclath, cstack
;; Tracked objects:
;;		On entry : 0/0
;;		On exit  : 0/0
;;		Unchanged: 0/0
;; Data sizes:     COMMON   BANK0   BANK1   BANK3   BANK2
;;      Params:         0       2       0       0       0
;;      Locals:         0       1       0       0       0
;;      Temps:          0       1       0       0       0
;;      Totals:         0       4       0       0       0
;;Total ram usage:        4 bytes
;; Hardware stack levels used:    1
;; Hardware stack levels required when called:    6
;; This function calls:
;;		_LcdClear
;;		_LcdPrint
;;		_KeyScan
;;		_IsKeyPending
;;		_GetKey
;; This function is called by:
;;		_main
;; This function uses a non-reentrant model
;;
psect	text1827
	file	"C:\Users\GauravLT\Desktop\AccessControlBy4Users\AccessControlUsingFingerSense-master\AccessControlUsingFingerSense-master\PIC16F877A_R307\main.c"
	line	420
	global	__size_of_menu
	__size_of_menu	equ	__end_of_menu-_menu
	
_menu:	
	opt	stack 1
; Regs used in _menu: [wreg-fsr0h+status,2+status,0+btemp+1+pclath+cstack]
	line	421
	
l9726:	
;main.c: 421: unsigned char keyHit=0xFF;
	movlw	(0FFh)
	bcf	status, 5	;RP0=0, select bank0
	bcf	status, 6	;RP1=0, select bank0
	movwf	(??_menu+0)+0
	movf	(??_menu+0)+0,w
	movwf	(menu@keyHit)
	line	422
	
l9728:	
;main.c: 422: LcdClear();
	fcall	_LcdClear
	line	423
	
l9730:	
;main.c: 423: LcdPrint(s, 0,0);
	bcf	status, 5	;RP0=0, select bank0
	bcf	status, 6	;RP1=0, select bank0
	movf	(menu@s+1),w
	clrf	(?_LcdPrint+1)
	addwf	(?_LcdPrint+1)
	movf	(menu@s),w
	clrf	(?_LcdPrint)
	addwf	(?_LcdPrint)

	clrf	0+(?_LcdPrint)+02h
	clrf	0+(?_LcdPrint)+03h
	fcall	_LcdPrint
	goto	l9732
	line	424
;main.c: 424: while(1)
	
l1561:	
	line	426
	
l9732:	
;main.c: 425: {
;main.c: 426: KeyScan();
	fcall	_KeyScan
	line	427
	
l9734:	
;main.c: 427: if(IsKeyPending())
	fcall	_IsKeyPending
	xorlw	0
	skipnz
	goto	u7991
	goto	u7990
u7991:
	goto	l9732
u7990:
	line	429
	
l9736:	
;main.c: 428: {
;main.c: 429: keyHit = GetKey();
	fcall	_GetKey
	bcf	status, 5	;RP0=0, select bank0
	bcf	status, 6	;RP1=0, select bank0
	movwf	(??_menu+0)+0
	movf	(??_menu+0)+0,w
	movwf	(menu@keyHit)
	line	430
	
l9738:	
;main.c: 430: if(keyHit == '1' || keyHit == '2' || keyHit == '3')
	movf	(menu@keyHit),w
	xorlw	031h
	skipnz
	goto	u8001
	goto	u8000
u8001:
	goto	l9744
u8000:
	
l9740:	
	movf	(menu@keyHit),w
	xorlw	032h
	skipnz
	goto	u8011
	goto	u8010
u8011:
	goto	l9744
u8010:
	
l9742:	
	movf	(menu@keyHit),w
	xorlw	033h
	skipz
	goto	u8021
	goto	u8020
u8021:
	goto	l9732
u8020:
	goto	l9744
	
l1565:	
	line	431
	
l9744:	
;main.c: 431: return keyHit;
	movf	(menu@keyHit),w
	goto	l1566
	
l9746:	
	goto	l1566
	
l1563:	
	goto	l9732
	line	432
	
l1562:	
	goto	l9732
	line	433
	
l1567:	
	line	424
	goto	l9732
	
l1568:	
	line	434
	
l9748:	
;main.c: 432: }
;main.c: 433: }
;main.c: 434: return 0;
	movlw	(0)
	goto	l1566
	
l9750:	
	line	435
	
l1566:	
	return
	opt stack 0
GLOBAL	__end_of_menu
	__end_of_menu:
;; =============== function _menu ends ============

	signat	_menu,4217
	global	_AddNewUser
psect	text1828,local,class=CODE,delta=2
global __ptext1828
__ptext1828:

;; *************** function _AddNewUser *****************
;; Defined at:
;;		line 450 in file "C:\Users\GauravLT\Desktop\AccessControlBy4Users\AccessControlUsingFingerSense-master\AccessControlUsingFingerSense-master\PIC16F877A_R307\FingerPrintSensor_R307.c"
;; Parameters:    Size  Location     Type
;;  position        1    wreg     unsigned char 
;; Auto vars:     Size  Location     Type
;;  position        1   68[BANK0 ] unsigned char 
;;  scanResult      1   69[BANK0 ] unsigned char 
;; Return value:  Size  Location     Type
;;                  1    wreg      unsigned char 
;; Registers used:
;;		wreg, fsr0l, fsr0h, status,2, status,0, pclath, cstack
;; Tracked objects:
;;		On entry : 0/0
;;		On exit  : 0/0
;;		Unchanged: 0/0
;; Data sizes:     COMMON   BANK0   BANK1   BANK3   BANK2
;;      Params:         0       0       0       0       0
;;      Locals:         0       2       0       0       0
;;      Temps:          0       1       0       0       0
;;      Totals:         0       3       0       0       0
;;Total ram usage:        3 bytes
;; Hardware stack levels used:    1
;; Hardware stack levels required when called:    6
;; This function calls:
;;		_KeyScan
;;		_IsKeyPending
;;		_GetKey
;;		_ScanForImage
;;		_GenCharacterFileFromImage
;;		_AddUserA
;;		_AddUserB
;;		_AddUserC
;;		_reserveEElocation
;; This function is called by:
;;		_AlterAdminUser
;;		_AddNewUserAfterAdminConfirm
;; This function uses a non-reentrant model
;;
psect	text1828
	file	"C:\Users\GauravLT\Desktop\AccessControlBy4Users\AccessControlUsingFingerSense-master\AccessControlUsingFingerSense-master\PIC16F877A_R307\FingerPrintSensor_R307.c"
	line	450
	global	__size_of_AddNewUser
	__size_of_AddNewUser	equ	__end_of_AddNewUser-_AddNewUser
	
_AddNewUser:	
	opt	stack 0
; Regs used in _AddNewUser: [wreg-fsr0h+status,2+status,0+pclath+cstack]
;AddNewUser@position stored from wreg
	line	474
	bcf	status, 5	;RP0=0, select bank0
	bcf	status, 6	;RP1=0, select bank0
	movwf	(AddNewUser@position)
	
l9678:	
;FingerPrintSensor_R307.c: 474: unsigned char scanResult=0xFF;
	movlw	(0FFh)
	movwf	(??_AddNewUser+0)+0
	movf	(??_AddNewUser+0)+0,w
	movwf	(AddNewUser@scanResult)
	goto	l9680
	line	476
;FingerPrintSensor_R307.c: 476: while(1)
	
l3238:	
	line	478
	
l9680:	
;FingerPrintSensor_R307.c: 477: {
;FingerPrintSensor_R307.c: 478: KeyScan();
	fcall	_KeyScan
	line	479
	
l9682:	
;FingerPrintSensor_R307.c: 479: if(IsKeyPending())
	fcall	_IsKeyPending
	xorlw	0
	skipnz
	goto	u7921
	goto	u7920
u7921:
	goto	l9690
u7920:
	line	481
	
l9684:	
;FingerPrintSensor_R307.c: 480: {
;FingerPrintSensor_R307.c: 481: if(GetKey() == '3') return 0xFF;
	fcall	_GetKey
	xorlw	033h
	skipz
	goto	u7931
	goto	u7930
u7931:
	goto	l9690
u7930:
	
l9686:	
	movlw	(0FFh)
	goto	l3241
	
l9688:	
	goto	l3241
	
l3240:	
	goto	l9690
	line	482
	
l3239:	
	line	483
	
l9690:	
;FingerPrintSensor_R307.c: 482: }
;FingerPrintSensor_R307.c: 483: scanResult = ScanForImage();
	fcall	_ScanForImage
	bcf	status, 5	;RP0=0, select bank0
	bcf	status, 6	;RP1=0, select bank0
	movwf	(??_AddNewUser+0)+0
	movf	(??_AddNewUser+0)+0,w
	movwf	(AddNewUser@scanResult)
	line	484
	
l9692:	
;FingerPrintSensor_R307.c: 484: if(scanResult == 1)
	movf	(AddNewUser@scanResult),w
	xorlw	01h
	skipz
	goto	u7941
	goto	u7940
u7941:
	goto	l9680
u7940:
	line	486
	
l9694:	
;FingerPrintSensor_R307.c: 485: {
;FingerPrintSensor_R307.c: 486: GenCharacterFileFromImage();
	fcall	_GenCharacterFileFromImage
	line	487
;FingerPrintSensor_R307.c: 487: while(1)
	
l3243:	
	line	489
;FingerPrintSensor_R307.c: 488: {
;FingerPrintSensor_R307.c: 489: KeyScan();
	fcall	_KeyScan
	line	490
	
l9696:	
;FingerPrintSensor_R307.c: 490: if(IsKeyPending())
	fcall	_IsKeyPending
	xorlw	0
	skipnz
	goto	u7951
	goto	u7950
u7951:
	goto	l9704
u7950:
	line	492
	
l9698:	
;FingerPrintSensor_R307.c: 491: {
;FingerPrintSensor_R307.c: 492: if(GetKey() == '3') return 0xFF;
	fcall	_GetKey
	xorlw	033h
	skipz
	goto	u7961
	goto	u7960
u7961:
	goto	l9704
u7960:
	
l9700:	
	movlw	(0FFh)
	goto	l3241
	
l9702:	
	goto	l3241
	
l3245:	
	goto	l9704
	line	493
	
l3244:	
	line	494
	
l9704:	
;FingerPrintSensor_R307.c: 493: }
;FingerPrintSensor_R307.c: 494: scanResult = ScanForImage();
	fcall	_ScanForImage
	bcf	status, 5	;RP0=0, select bank0
	bcf	status, 6	;RP1=0, select bank0
	movwf	(??_AddNewUser+0)+0
	movf	(??_AddNewUser+0)+0,w
	movwf	(AddNewUser@scanResult)
	line	495
	
l9706:	
;FingerPrintSensor_R307.c: 495: if(scanResult == 1)
	movf	(AddNewUser@scanResult),w
	xorlw	01h
	skipz
	goto	u7971
	goto	u7970
u7971:
	goto	l3243
u7970:
	line	497
	
l9708:	
;FingerPrintSensor_R307.c: 496: {
;FingerPrintSensor_R307.c: 497: AddUserA();
	fcall	_AddUserA
	line	498
;FingerPrintSensor_R307.c: 498: AddUserB();
	fcall	_AddUserB
	line	499
;FingerPrintSensor_R307.c: 499: if(AddUserC(position) == 1)
	bcf	status, 5	;RP0=0, select bank0
	bcf	status, 6	;RP1=0, select bank0
	movf	(AddNewUser@position),w
	fcall	_AddUserC
	xorlw	01h
	skipz
	goto	u7981
	goto	u7980
u7981:
	goto	l9718
u7980:
	line	501
	
l9710:	
;FingerPrintSensor_R307.c: 500: {
;FingerPrintSensor_R307.c: 501: reserveEElocation(position);
	bcf	status, 5	;RP0=0, select bank0
	bcf	status, 6	;RP1=0, select bank0
	movf	(AddNewUser@position),w
	fcall	_reserveEElocation
	line	502
	
l9712:	
;FingerPrintSensor_R307.c: 502: return 1;
	movlw	(01h)
	goto	l3241
	
l9714:	
	goto	l3241
	line	503
	
l9716:	
;FingerPrintSensor_R307.c: 503: }
	goto	l3243
	line	504
	
l3247:	
	
l9718:	
;FingerPrintSensor_R307.c: 504: else return 0;
	movlw	(0)
	goto	l3241
	
l9720:	
	goto	l3241
	
l3248:	
	goto	l3243
	line	505
	
l3246:	
	goto	l3243
	line	506
	
l3249:	
	line	487
	goto	l3243
	
l3250:	
	goto	l9680
	line	507
	
l3242:	
	goto	l9680
	line	508
	
l3251:	
	line	476
	goto	l9680
	
l3252:	
	line	509
	
l9722:	
;FingerPrintSensor_R307.c: 505: }
;FingerPrintSensor_R307.c: 506: }
;FingerPrintSensor_R307.c: 507: }
;FingerPrintSensor_R307.c: 508: }
;FingerPrintSensor_R307.c: 509: return 0;
	movlw	(0)
	goto	l3241
	
l9724:	
	line	510
	
l3241:	
	return
	opt stack 0
GLOBAL	__end_of_AddNewUser
	__end_of_AddNewUser:
;; =============== function _AddNewUser ends ============

	signat	_AddNewUser,4217
	global	_HiSpeedScan0
psect	text1829,local,class=CODE,delta=2
global __ptext1829
__ptext1829:

;; *************** function _HiSpeedScan0 *****************
;; Defined at:
;;		line 298 in file "C:\Users\GauravLT\Desktop\AccessControlBy4Users\AccessControlUsingFingerSense-master\AccessControlUsingFingerSense-master\PIC16F877A_R307\FingerPrintSensor_R307.c"
;; Parameters:    Size  Location     Type
;;  UserNo          1    wreg     PTR unsigned char 
;;		 -> DeleteUserAfterAdminConfirm@UserNo(1), AddNewUserAfterAdminConfirm@UserNo(1), AlterAdminUser@UserNo(1), ControlAccess@UserNo(1), 
;;		 -> EraseAllUsersAfterAdminConfirm@UserNo(1), 
;; Auto vars:     Size  Location     Type
;;  UserNo          1   73[BANK0 ] PTR unsigned char 
;;		 -> DeleteUserAfterAdminConfirm@UserNo(1), AddNewUserAfterAdminConfirm@UserNo(1), AlterAdminUser@UserNo(1), ControlAccess@UserNo(1), 
;;		 -> EraseAllUsersAfterAdminConfirm@UserNo(1), 
;;  scanResult      1   74[BANK0 ] unsigned char 
;; Return value:  Size  Location     Type
;;                  1    wreg      unsigned char 
;; Registers used:
;;		wreg, fsr0l, fsr0h, status,2, status,0, pclath, cstack
;; Tracked objects:
;;		On entry : 0/0
;;		On exit  : 0/0
;;		Unchanged: 0/0
;; Data sizes:     COMMON   BANK0   BANK1   BANK3   BANK2
;;      Params:         0       0       0       0       0
;;      Locals:         0       2       0       0       0
;;      Temps:          0       1       0       0       0
;;      Totals:         0       3       0       0       0
;;Total ram usage:        3 bytes
;; Hardware stack levels used:    1
;; Hardware stack levels required when called:    6
;; This function calls:
;;		_KeyScan
;;		_IsKeyPending
;;		_GetKey
;;		_ScanForImage
;;		_GenCharacterFileFromImage
;;		_HiSpeedScan
;; This function is called by:
;;		_EraseAllUsersAfterAdminConfirm
;;		_ControlAccess
;;		_AlterAdminUser
;;		_AddNewUserAfterAdminConfirm
;;		_DeleteUserAfterAdminConfirm
;; This function uses a non-reentrant model
;;
psect	text1829
	file	"C:\Users\GauravLT\Desktop\AccessControlBy4Users\AccessControlUsingFingerSense-master\AccessControlUsingFingerSense-master\PIC16F877A_R307\FingerPrintSensor_R307.c"
	line	298
	global	__size_of_HiSpeedScan0
	__size_of_HiSpeedScan0	equ	__end_of_HiSpeedScan0-_HiSpeedScan0
	
_HiSpeedScan0:	
	opt	stack 0
; Regs used in _HiSpeedScan0: [wreg-fsr0h+status,2+status,0+pclath+cstack]
;HiSpeedScan0@UserNo stored from wreg
	bcf	status, 5	;RP0=0, select bank0
	bcf	status, 6	;RP1=0, select bank0
	movwf	(HiSpeedScan0@UserNo)
	line	299
	
l9652:	
;FingerPrintSensor_R307.c: 299: unsigned char scanResult=0xFF;
	movlw	(0FFh)
	movwf	(??_HiSpeedScan0+0)+0
	movf	(??_HiSpeedScan0+0)+0,w
	movwf	(HiSpeedScan0@scanResult)
	goto	l9654
	line	301
;FingerPrintSensor_R307.c: 301: while(1)
	
l3172:	
	line	303
	
l9654:	
;FingerPrintSensor_R307.c: 302: {
;FingerPrintSensor_R307.c: 303: KeyScan();
	fcall	_KeyScan
	line	304
	
l9656:	
;FingerPrintSensor_R307.c: 304: if(IsKeyPending())
	fcall	_IsKeyPending
	xorlw	0
	skipnz
	goto	u7881
	goto	u7880
u7881:
	goto	l9664
u7880:
	line	306
	
l9658:	
;FingerPrintSensor_R307.c: 305: {
;FingerPrintSensor_R307.c: 306: if(GetKey() == '3') return 0xFF;
	fcall	_GetKey
	xorlw	033h
	skipz
	goto	u7891
	goto	u7890
u7891:
	goto	l9664
u7890:
	
l9660:	
	movlw	(0FFh)
	goto	l3175
	
l9662:	
	goto	l3175
	
l3174:	
	goto	l9664
	line	307
	
l3173:	
	line	308
	
l9664:	
;FingerPrintSensor_R307.c: 307: }
;FingerPrintSensor_R307.c: 308: scanResult = ScanForImage();
	fcall	_ScanForImage
	bcf	status, 5	;RP0=0, select bank0
	bcf	status, 6	;RP1=0, select bank0
	movwf	(??_HiSpeedScan0+0)+0
	movf	(??_HiSpeedScan0+0)+0,w
	movwf	(HiSpeedScan0@scanResult)
	line	309
	
l9666:	
;FingerPrintSensor_R307.c: 309: if(scanResult == 1)
	movf	(HiSpeedScan0@scanResult),w
	xorlw	01h
	skipz
	goto	u7901
	goto	u7900
u7901:
	goto	l9654
u7900:
	line	311
	
l9668:	
;FingerPrintSensor_R307.c: 310: {
;FingerPrintSensor_R307.c: 311: if(GenCharacterFileFromImage())
	fcall	_GenCharacterFileFromImage
	xorlw	0
	skipnz
	goto	u7911
	goto	u7910
u7911:
	goto	l9654
u7910:
	line	313
	
l9670:	
;FingerPrintSensor_R307.c: 312: {
;FingerPrintSensor_R307.c: 313: return HiSpeedScan(UserNo);
	bcf	status, 5	;RP0=0, select bank0
	bcf	status, 6	;RP1=0, select bank0
	movf	(HiSpeedScan0@UserNo),w
	fcall	_HiSpeedScan
	goto	l3175
	
l9672:	
	goto	l3175
	line	326
	
l3177:	
	goto	l9654
	line	327
	
l3176:	
	goto	l9654
	line	328
	
l3178:	
	line	301
	goto	l9654
	
l3179:	
	line	329
	
l9674:	
;FingerPrintSensor_R307.c: 326: }
;FingerPrintSensor_R307.c: 327: }
;FingerPrintSensor_R307.c: 328: }
;FingerPrintSensor_R307.c: 329: return 0;
	movlw	(0)
	goto	l3175
	
l9676:	
	line	330
	
l3175:	
	return
	opt stack 0
GLOBAL	__end_of_HiSpeedScan0
	__end_of_HiSpeedScan0:
;; =============== function _HiSpeedScan0 ends ============

	signat	_HiSpeedScan0,4217
	global	_AddUserC
psect	text1830,local,class=CODE,delta=2
global __ptext1830
__ptext1830:

;; *************** function _AddUserC *****************
;; Defined at:
;;		line 435 in file "C:\Users\GauravLT\Desktop\AccessControlBy4Users\AccessControlUsingFingerSense-master\AccessControlUsingFingerSense-master\PIC16F877A_R307\FingerPrintSensor_R307.c"
;; Parameters:    Size  Location     Type
;;  position        1    wreg     unsigned char 
;; Auto vars:     Size  Location     Type
;;  position        1   64[BANK0 ] unsigned char 
;;  contentData     4   60[BANK0 ] unsigned char [4]
;;  confirmation    1   66[BANK0 ] unsigned char 
;;  dataOut         1   65[BANK0 ] unsigned char 
;; Return value:  Size  Location     Type
;;                  1    wreg      unsigned char 
;; Registers used:
;;		wreg, fsr0l, fsr0h, status,2, status,0, pclath, cstack
;; Tracked objects:
;;		On entry : 0/0
;;		On exit  : 0/0
;;		Unchanged: 0/0
;; Data sizes:     COMMON   BANK0   BANK1   BANK3   BANK2
;;      Params:         0       0       0       0       0
;;      Locals:         0       7       0       0       0
;;      Temps:          0       3       0       0       0
;;      Totals:         0      10       0       0       0
;;Total ram usage:       10 bytes
;; Hardware stack levels used:    1
;; Hardware stack levels required when called:    5
;; This function calls:
;;		_ClearUartBuffer
;;		_sendPackage
;;		_FillUpResponse
;; This function is called by:
;;		_AddNewUser
;; This function uses a non-reentrant model
;;
psect	text1830
	file	"C:\Users\GauravLT\Desktop\AccessControlBy4Users\AccessControlUsingFingerSense-master\AccessControlUsingFingerSense-master\PIC16F877A_R307\FingerPrintSensor_R307.c"
	line	435
	global	__size_of_AddUserC
	__size_of_AddUserC	equ	__end_of_AddUserC-_AddUserC
	
_AddUserC:	
	opt	stack 0
; Regs used in _AddUserC: [wreg-fsr0h+status,2+status,0+pclath+cstack]
;AddUserC@position stored from wreg
	line	436
	bcf	status, 5	;RP0=0, select bank0
	bcf	status, 6	;RP1=0, select bank0
	movwf	(AddUserC@position)
	
l9634:	
;FingerPrintSensor_R307.c: 436: unsigned char dataOut[]={0xFF};
	bsf	status, 5	;RP0=1, select bank1
	bcf	status, 6	;RP1=0, select bank1
	movf	(AddUserC@F1346)^080h,w
	bcf	status, 5	;RP0=0, select bank0
	bcf	status, 6	;RP1=0, select bank0
	movwf	(??_AddUserC+0)+0
	movf	(??_AddUserC+0)+0,w
	movwf	(AddUserC@dataOut)
	line	437
;FingerPrintSensor_R307.c: 437: unsigned char confirmationCode=0xFF;
	movlw	(0FFh)
	movwf	(??_AddUserC+0)+0
	movf	(??_AddUserC+0)+0,w
	movwf	(AddUserC@confirmationCode)
	line	438
;FingerPrintSensor_R307.c: 438: unsigned char contentData[]={0x02, 0x00, 0x00, 0x00};
	bsf	status, 5	;RP0=1, select bank1
	bcf	status, 6	;RP1=0, select bank1
	movf	(AddUserC@F1349+3)^080h,w
	bcf	status, 5	;RP0=0, select bank0
	bcf	status, 6	;RP1=0, select bank0
	movwf	(AddUserC@contentData+3)
	bsf	status, 5	;RP0=1, select bank1
	bcf	status, 6	;RP1=0, select bank1
	movf	(AddUserC@F1349+2)^080h,w
	bcf	status, 5	;RP0=0, select bank0
	bcf	status, 6	;RP1=0, select bank0
	movwf	(AddUserC@contentData+2)
	bsf	status, 5	;RP0=1, select bank1
	bcf	status, 6	;RP1=0, select bank1
	movf	(AddUserC@F1349+1)^080h,w
	bcf	status, 5	;RP0=0, select bank0
	bcf	status, 6	;RP1=0, select bank0
	movwf	(AddUserC@contentData+1)
	bsf	status, 5	;RP0=1, select bank1
	bcf	status, 6	;RP1=0, select bank1
	movf	(AddUserC@F1349)^080h,w
	bcf	status, 5	;RP0=0, select bank0
	bcf	status, 6	;RP1=0, select bank0
	movwf	(AddUserC@contentData)

	line	439
;FingerPrintSensor_R307.c: 439: contentData[2] = position;
	movf	(AddUserC@position),w
	movwf	(??_AddUserC+0)+0
	movf	(??_AddUserC+0)+0,w
	movwf	0+(AddUserC@contentData)+02h
	line	441
	
l9636:	
;FingerPrintSensor_R307.c: 441: ClearUartBuffer();
	fcall	_ClearUartBuffer
	line	442
	
l9638:	
;FingerPrintSensor_R307.c: 442: sendPackage(pCmd, 0x06, 0x06, contentData);
	movlw	(06h)
	bcf	status, 5	;RP0=0, select bank0
	bcf	status, 6	;RP1=0, select bank0
	movwf	(??_AddUserC+0)+0
	movf	(??_AddUserC+0)+0,w
	movwf	(?_sendPackage)
	movlw	(06h)
	movwf	(??_AddUserC+1)+0
	movf	(??_AddUserC+1)+0,w
	movwf	0+(?_sendPackage)+01h
	movlw	(AddUserC@contentData)&0ffh
	movwf	(??_AddUserC+2)+0
	movf	(??_AddUserC+2)+0,w
	movwf	(0+?_sendPackage+02h)
	movlw	(01h)
	fcall	_sendPackage
	line	443
	
l9640:	
;FingerPrintSensor_R307.c: 443: if(FillUpResponse(dataOut, &confirmationCode) )
	movlw	(AddUserC@confirmationCode)&0ffh
	bcf	status, 5	;RP0=0, select bank0
	bcf	status, 6	;RP1=0, select bank0
	movwf	(??_AddUserC+0)+0
	movf	(??_AddUserC+0)+0,w
	movwf	(?_FillUpResponse)
	movlw	(AddUserC@dataOut)&0ffh
	fcall	_FillUpResponse
	xorlw	0
	skipnz
	goto	u7861
	goto	u7860
u7861:
	goto	l9648
u7860:
	line	445
	
l9642:	
;FingerPrintSensor_R307.c: 444: {
;FingerPrintSensor_R307.c: 445: if(confirmationCode == 0x00) return 1;
	bcf	status, 5	;RP0=0, select bank0
	bcf	status, 6	;RP1=0, select bank0
	movf	(AddUserC@confirmationCode),f
	skipz
	goto	u7871
	goto	u7870
u7871:
	goto	l9648
u7870:
	
l9644:	
	movlw	(01h)
	goto	l3235
	
l9646:	
	goto	l3235
	
l3234:	
	goto	l9648
	line	446
	
l3233:	
	line	447
	
l9648:	
;FingerPrintSensor_R307.c: 446: }
;FingerPrintSensor_R307.c: 447: return 0;
	movlw	(0)
	goto	l3235
	
l9650:	
	line	448
	
l3235:	
	return
	opt stack 0
GLOBAL	__end_of_AddUserC
	__end_of_AddUserC:
;; =============== function _AddUserC ends ============

	signat	_AddUserC,4217
	global	_AddUserB
psect	text1831,local,class=CODE,delta=2
global __ptext1831
__ptext1831:

;; *************** function _AddUserB *****************
;; Defined at:
;;		line 421 in file "C:\Users\GauravLT\Desktop\AccessControlBy4Users\AccessControlUsingFingerSense-master\AccessControlUsingFingerSense-master\PIC16F877A_R307\FingerPrintSensor_R307.c"
;; Parameters:    Size  Location     Type
;;		None
;; Auto vars:     Size  Location     Type
;;  confirmation    1   62[BANK0 ] unsigned char 
;;  contentData     1   61[BANK0 ] unsigned char 
;;  dataOut         1   60[BANK0 ] unsigned char 
;; Return value:  Size  Location     Type
;;                  1    wreg      unsigned char 
;; Registers used:
;;		wreg, fsr0l, fsr0h, status,2, status,0, pclath, cstack
;; Tracked objects:
;;		On entry : 0/0
;;		On exit  : 0/0
;;		Unchanged: 0/0
;; Data sizes:     COMMON   BANK0   BANK1   BANK3   BANK2
;;      Params:         0       0       0       0       0
;;      Locals:         0       3       0       0       0
;;      Temps:          0       3       0       0       0
;;      Totals:         0       6       0       0       0
;;Total ram usage:        6 bytes
;; Hardware stack levels used:    1
;; Hardware stack levels required when called:    5
;; This function calls:
;;		_ClearUartBuffer
;;		_sendPackage
;;		_FillUpResponse
;; This function is called by:
;;		_AddNewUser
;; This function uses a non-reentrant model
;;
psect	text1831
	file	"C:\Users\GauravLT\Desktop\AccessControlBy4Users\AccessControlUsingFingerSense-master\AccessControlUsingFingerSense-master\PIC16F877A_R307\FingerPrintSensor_R307.c"
	line	421
	global	__size_of_AddUserB
	__size_of_AddUserB	equ	__end_of_AddUserB-_AddUserB
	
_AddUserB:	
	opt	stack 0
; Regs used in _AddUserB: [wreg-fsr0h+status,2+status,0+pclath+cstack]
	line	422
	
l9622:	
;FingerPrintSensor_R307.c: 422: unsigned char dataOut[]={0xFF};
	bsf	status, 5	;RP0=1, select bank1
	bcf	status, 6	;RP1=0, select bank1
	movf	(AddUserB@F1340)^080h,w
	bcf	status, 5	;RP0=0, select bank0
	bcf	status, 6	;RP1=0, select bank0
	movwf	(??_AddUserB+0)+0
	movf	(??_AddUserB+0)+0,w
	movwf	(AddUserB@dataOut)
	line	423
;FingerPrintSensor_R307.c: 423: unsigned char confirmationCode=0xFF;
	movlw	(0FFh)
	movwf	(??_AddUserB+0)+0
	movf	(??_AddUserB+0)+0,w
	movwf	(AddUserB@confirmationCode)
	line	424
;FingerPrintSensor_R307.c: 424: unsigned char contentData[]={0x05};
	bsf	status, 5	;RP0=1, select bank1
	bcf	status, 6	;RP1=0, select bank1
	movf	(AddUserB@F1343)^080h,w
	bcf	status, 5	;RP0=0, select bank0
	bcf	status, 6	;RP1=0, select bank0
	movwf	(??_AddUserB+0)+0
	movf	(??_AddUserB+0)+0,w
	movwf	(AddUserB@contentData)
	line	426
	
l9624:	
;FingerPrintSensor_R307.c: 426: ClearUartBuffer();
	fcall	_ClearUartBuffer
	line	427
	
l9626:	
;FingerPrintSensor_R307.c: 427: sendPackage(pCmd, 0x03, 0x05, contentData);
	movlw	(03h)
	bcf	status, 5	;RP0=0, select bank0
	bcf	status, 6	;RP1=0, select bank0
	movwf	(??_AddUserB+0)+0
	movf	(??_AddUserB+0)+0,w
	movwf	(?_sendPackage)
	movlw	(05h)
	movwf	(??_AddUserB+1)+0
	movf	(??_AddUserB+1)+0,w
	movwf	0+(?_sendPackage)+01h
	movlw	(AddUserB@contentData)&0ffh
	movwf	(??_AddUserB+2)+0
	movf	(??_AddUserB+2)+0,w
	movwf	(0+?_sendPackage+02h)
	movlw	(01h)
	fcall	_sendPackage
	line	428
	
l9628:	
;FingerPrintSensor_R307.c: 428: if(FillUpResponse(dataOut, &confirmationCode) )
	movlw	(AddUserB@confirmationCode)&0ffh
	bcf	status, 5	;RP0=0, select bank0
	bcf	status, 6	;RP1=0, select bank0
	movwf	(??_AddUserB+0)+0
	movf	(??_AddUserB+0)+0,w
	movwf	(?_FillUpResponse)
	movlw	(AddUserB@dataOut)&0ffh
	fcall	_FillUpResponse
	goto	l3226
	line	430
	
l9630:	
	goto	l3226
	
l9632:	
;	Return value of _AddUserB is never used
	goto	l3226
	
l3225:	
	goto	l3226
	line	431
	
l3224:	
	line	433
;FingerPrintSensor_R307.c: 431: }
;FingerPrintSensor_R307.c: 432: return 0;
;	Return value of _AddUserB is never used
	
l3226:	
	return
	opt stack 0
GLOBAL	__end_of_AddUserB
	__end_of_AddUserB:
;; =============== function _AddUserB ends ============

	signat	_AddUserB,89
	global	_AddUserA
psect	text1832,local,class=CODE,delta=2
global __ptext1832
__ptext1832:

;; *************** function _AddUserA *****************
;; Defined at:
;;		line 407 in file "C:\Users\GauravLT\Desktop\AccessControlBy4Users\AccessControlUsingFingerSense-master\AccessControlUsingFingerSense-master\PIC16F877A_R307\FingerPrintSensor_R307.c"
;; Parameters:    Size  Location     Type
;;		None
;; Auto vars:     Size  Location     Type
;;  confirmation    1   62[BANK0 ] unsigned char 
;;  contentData     1   61[BANK0 ] unsigned char 
;;  dataOut         1   60[BANK0 ] unsigned char 
;; Return value:  Size  Location     Type
;;                  1    wreg      unsigned char 
;; Registers used:
;;		wreg, fsr0l, fsr0h, status,2, status,0, pclath, cstack
;; Tracked objects:
;;		On entry : 0/0
;;		On exit  : 0/0
;;		Unchanged: 0/0
;; Data sizes:     COMMON   BANK0   BANK1   BANK3   BANK2
;;      Params:         0       0       0       0       0
;;      Locals:         0       3       0       0       0
;;      Temps:          0       3       0       0       0
;;      Totals:         0       6       0       0       0
;;Total ram usage:        6 bytes
;; Hardware stack levels used:    1
;; Hardware stack levels required when called:    5
;; This function calls:
;;		_ClearUartBuffer
;;		_sendPackage
;;		_FillUpResponse
;; This function is called by:
;;		_AddNewUser
;; This function uses a non-reentrant model
;;
psect	text1832
	file	"C:\Users\GauravLT\Desktop\AccessControlBy4Users\AccessControlUsingFingerSense-master\AccessControlUsingFingerSense-master\PIC16F877A_R307\FingerPrintSensor_R307.c"
	line	407
	global	__size_of_AddUserA
	__size_of_AddUserA	equ	__end_of_AddUserA-_AddUserA
	
_AddUserA:	
	opt	stack 0
; Regs used in _AddUserA: [wreg-fsr0h+status,2+status,0+pclath+cstack]
	line	408
	
l9610:	
;FingerPrintSensor_R307.c: 408: unsigned char dataOut[]={0xFF};
	bsf	status, 5	;RP0=1, select bank1
	bcf	status, 6	;RP1=0, select bank1
	movf	(AddUserA@F1335)^080h,w
	bcf	status, 5	;RP0=0, select bank0
	bcf	status, 6	;RP1=0, select bank0
	movwf	(??_AddUserA+0)+0
	movf	(??_AddUserA+0)+0,w
	movwf	(AddUserA@dataOut)
	line	409
;FingerPrintSensor_R307.c: 409: unsigned char confirmationCode=0xFF;
	movlw	(0FFh)
	movwf	(??_AddUserA+0)+0
	movf	(??_AddUserA+0)+0,w
	movwf	(AddUserA@confirmationCode)
	line	410
;FingerPrintSensor_R307.c: 410: unsigned char contentData[]={0x02};
	bsf	status, 5	;RP0=1, select bank1
	bcf	status, 6	;RP1=0, select bank1
	movf	(AddUserA@F1338)^080h,w
	bcf	status, 5	;RP0=0, select bank0
	bcf	status, 6	;RP1=0, select bank0
	movwf	(??_AddUserA+0)+0
	movf	(??_AddUserA+0)+0,w
	movwf	(AddUserA@contentData)
	line	412
	
l9612:	
;FingerPrintSensor_R307.c: 412: ClearUartBuffer();
	fcall	_ClearUartBuffer
	line	413
	
l9614:	
;FingerPrintSensor_R307.c: 413: sendPackage(pCmd, 0x04, 0x02, contentData);
	movlw	(04h)
	bcf	status, 5	;RP0=0, select bank0
	bcf	status, 6	;RP1=0, select bank0
	movwf	(??_AddUserA+0)+0
	movf	(??_AddUserA+0)+0,w
	movwf	(?_sendPackage)
	movlw	(02h)
	movwf	(??_AddUserA+1)+0
	movf	(??_AddUserA+1)+0,w
	movwf	0+(?_sendPackage)+01h
	movlw	(AddUserA@contentData)&0ffh
	movwf	(??_AddUserA+2)+0
	movf	(??_AddUserA+2)+0,w
	movwf	(0+?_sendPackage+02h)
	movlw	(01h)
	fcall	_sendPackage
	line	414
	
l9616:	
;FingerPrintSensor_R307.c: 414: if(FillUpResponse(dataOut, &confirmationCode) )
	movlw	(AddUserA@confirmationCode)&0ffh
	bcf	status, 5	;RP0=0, select bank0
	bcf	status, 6	;RP1=0, select bank0
	movwf	(??_AddUserA+0)+0
	movf	(??_AddUserA+0)+0,w
	movwf	(?_FillUpResponse)
	movlw	(AddUserA@dataOut)&0ffh
	fcall	_FillUpResponse
	goto	l3217
	line	416
	
l9618:	
	goto	l3217
	
l9620:	
;	Return value of _AddUserA is never used
	goto	l3217
	
l3216:	
	goto	l3217
	line	417
	
l3215:	
	line	419
;FingerPrintSensor_R307.c: 417: }
;FingerPrintSensor_R307.c: 418: return 0;
;	Return value of _AddUserA is never used
	
l3217:	
	return
	opt stack 0
GLOBAL	__end_of_AddUserA
	__end_of_AddUserA:
;; =============== function _AddUserA ends ============

	signat	_AddUserA,89
	global	_HiSpeedScan
psect	text1833,local,class=CODE,delta=2
global __ptext1833
__ptext1833:

;; *************** function _HiSpeedScan *****************
;; Defined at:
;;		line 334 in file "C:\Users\GauravLT\Desktop\AccessControlBy4Users\AccessControlUsingFingerSense-master\AccessControlUsingFingerSense-master\PIC16F877A_R307\FingerPrintSensor_R307.c"
;; Parameters:    Size  Location     Type
;;  UserNo          1    wreg     PTR unsigned char 
;;		 -> DeleteUserAfterAdminConfirm@UserNo(1), AddNewUserAfterAdminConfirm@UserNo(1), AlterAdminUser@UserNo(1), ControlAccess@UserNo(1), 
;;		 -> EraseAllUsersAfterAdminConfirm@UserNo(1), 
;; Auto vars:     Size  Location     Type
;;  UserNo          1   70[BANK0 ] PTR unsigned char 
;;		 -> DeleteUserAfterAdminConfirm@UserNo(1), AddNewUserAfterAdminConfirm@UserNo(1), AlterAdminUser@UserNo(1), ControlAccess@UserNo(1), 
;;		 -> EraseAllUsersAfterAdminConfirm@UserNo(1), 
;;  dataOut         5   65[BANK0 ] unsigned char [5]
;;  contentData     5   60[BANK0 ] unsigned char [5]
;;  confirmation    1   71[BANK0 ] unsigned char 
;; Return value:  Size  Location     Type
;;                  1    wreg      unsigned char 
;; Registers used:
;;		wreg, fsr0l, fsr0h, status,2, status,0, pclath, cstack
;; Tracked objects:
;;		On entry : 0/0
;;		On exit  : 0/0
;;		Unchanged: 0/0
;; Data sizes:     COMMON   BANK0   BANK1   BANK3   BANK2
;;      Params:         0       0       0       0       0
;;      Locals:         0      12       0       0       0
;;      Temps:          0       3       0       0       0
;;      Totals:         0      15       0       0       0
;;Total ram usage:       15 bytes
;; Hardware stack levels used:    1
;; Hardware stack levels required when called:    5
;; This function calls:
;;		_ClearUartBuffer
;;		_sendPackage
;;		_FillUpResponse
;; This function is called by:
;;		_HiSpeedScan0
;; This function uses a non-reentrant model
;;
psect	text1833
	file	"C:\Users\GauravLT\Desktop\AccessControlBy4Users\AccessControlUsingFingerSense-master\AccessControlUsingFingerSense-master\PIC16F877A_R307\FingerPrintSensor_R307.c"
	line	334
	global	__size_of_HiSpeedScan
	__size_of_HiSpeedScan	equ	__end_of_HiSpeedScan-_HiSpeedScan
	
_HiSpeedScan:	
	opt	stack 0
; Regs used in _HiSpeedScan: [wreg-fsr0h+status,2+status,0+pclath+cstack]
;HiSpeedScan@UserNo stored from wreg
	line	341
	bcf	status, 5	;RP0=0, select bank0
	bcf	status, 6	;RP1=0, select bank0
	movwf	(HiSpeedScan@UserNo)
	
l9584:	
;FingerPrintSensor_R307.c: 341: unsigned char dataOut[]={0xFF, 0xFF, 0xFF, 0xFF, 0x00};
	movlw	(HiSpeedScan@dataOut)&0ffh
	movwf	fsr0
	bsf	status, 5	;RP0=1, select bank3
	bsf	status, 6	;RP1=1, select bank3
	movf	(HiSpeedScan@F1322)^0180h,w
	bcf	status, 7	;select IRP bank0
	movwf	indf
	incf	fsr0,f
	movf	(HiSpeedScan@F1322)^0180h+1,w
	movwf	indf
	incf	fsr0,f
	movf	(HiSpeedScan@F1322)^0180h+2,w
	movwf	indf
	incf	fsr0,f
	movf	(HiSpeedScan@F1322)^0180h+3,w
	movwf	indf
	incf	fsr0,f
	movf	(HiSpeedScan@F1322)^0180h+4,w
	movwf	indf
	line	342
	
l9586:	
;FingerPrintSensor_R307.c: 342: unsigned char confirmationCode=0xFF;
	movlw	(0FFh)
	bcf	status, 5	;RP0=0, select bank0
	bcf	status, 6	;RP1=0, select bank0
	movwf	(??_HiSpeedScan+0)+0
	movf	(??_HiSpeedScan+0)+0,w
	movwf	(HiSpeedScan@confirmationCode)
	line	343
	
l9588:	
;FingerPrintSensor_R307.c: 343: unsigned char contentData[]={0x01, 0x00, 0x00, 0x03, 0xE9};
	movlw	(HiSpeedScan@contentData)&0ffh
	movwf	fsr0
	bsf	status, 5	;RP0=1, select bank3
	bsf	status, 6	;RP1=1, select bank3
	movf	(HiSpeedScan@F1325)^0180h,w
	movwf	indf
	incf	fsr0,f
	movf	(HiSpeedScan@F1325)^0180h+1,w
	movwf	indf
	incf	fsr0,f
	movf	(HiSpeedScan@F1325)^0180h+2,w
	movwf	indf
	incf	fsr0,f
	movf	(HiSpeedScan@F1325)^0180h+3,w
	movwf	indf
	incf	fsr0,f
	movf	(HiSpeedScan@F1325)^0180h+4,w
	movwf	indf
	line	345
	
l9590:	
;FingerPrintSensor_R307.c: 345: ClearUartBuffer();
	fcall	_ClearUartBuffer
	line	346
	
l9592:	
;FingerPrintSensor_R307.c: 346: sendPackage(pCmd, 0x08, 0x1B, contentData);
	movlw	(08h)
	bcf	status, 5	;RP0=0, select bank0
	bcf	status, 6	;RP1=0, select bank0
	movwf	(??_HiSpeedScan+0)+0
	movf	(??_HiSpeedScan+0)+0,w
	movwf	(?_sendPackage)
	movlw	(01Bh)
	movwf	(??_HiSpeedScan+1)+0
	movf	(??_HiSpeedScan+1)+0,w
	movwf	0+(?_sendPackage)+01h
	movlw	(HiSpeedScan@contentData)&0ffh
	movwf	(??_HiSpeedScan+2)+0
	movf	(??_HiSpeedScan+2)+0,w
	movwf	(0+?_sendPackage+02h)
	movlw	(01h)
	fcall	_sendPackage
	line	348
	
l9594:	
;FingerPrintSensor_R307.c: 348: if(FillUpResponse(dataOut, &confirmationCode) )
	movlw	(HiSpeedScan@confirmationCode)&0ffh
	bcf	status, 5	;RP0=0, select bank0
	bcf	status, 6	;RP1=0, select bank0
	movwf	(??_HiSpeedScan+0)+0
	movf	(??_HiSpeedScan+0)+0,w
	movwf	(?_FillUpResponse)
	movlw	(HiSpeedScan@dataOut)&0ffh
	fcall	_FillUpResponse
	xorlw	0
	skipnz
	goto	u7841
	goto	u7840
u7841:
	goto	l9604
u7840:
	line	350
	
l9596:	
;FingerPrintSensor_R307.c: 349: {
;FingerPrintSensor_R307.c: 350: if(confirmationCode == 0x00){*UserNo=dataOut[1]; return 1; }
	bcf	status, 5	;RP0=0, select bank0
	bcf	status, 6	;RP1=0, select bank0
	movf	(HiSpeedScan@confirmationCode),f
	skipz
	goto	u7851
	goto	u7850
u7851:
	goto	l9604
u7850:
	
l9598:	
	movf	0+(HiSpeedScan@dataOut)+01h,w
	movwf	(??_HiSpeedScan+0)+0
	movf	(HiSpeedScan@UserNo),w
	movwf	fsr0
	movf	(??_HiSpeedScan+0)+0,w
	bcf	status, 7	;select IRP bank0
	movwf	indf
	
l9600:	
	movlw	(01h)
	goto	l3188
	
l9602:	
	goto	l3188
	
l3187:	
	goto	l9604
	line	351
	
l3186:	
	line	352
	
l9604:	
;FingerPrintSensor_R307.c: 351: }
;FingerPrintSensor_R307.c: 352: *UserNo = 0;
	bcf	status, 5	;RP0=0, select bank0
	bcf	status, 6	;RP1=0, select bank0
	movf	(HiSpeedScan@UserNo),w
	movwf	fsr0
	bcf	status, 7	;select IRP bank0
	clrf	indf
	line	353
	
l9606:	
;FingerPrintSensor_R307.c: 353: return 0;
	movlw	(0)
	goto	l3188
	
l9608:	
	line	354
	
l3188:	
	return
	opt stack 0
GLOBAL	__end_of_HiSpeedScan
	__end_of_HiSpeedScan:
;; =============== function _HiSpeedScan ends ============

	signat	_HiSpeedScan,4217
	global	_GenCharacterFileFromImage
psect	text1834,local,class=CODE,delta=2
global __ptext1834
__ptext1834:

;; *************** function _GenCharacterFileFromImage *****************
;; Defined at:
;;		line 255 in file "C:\Users\GauravLT\Desktop\AccessControlBy4Users\AccessControlUsingFingerSense-master\AccessControlUsingFingerSense-master\PIC16F877A_R307\FingerPrintSensor_R307.c"
;; Parameters:    Size  Location     Type
;;		None
;; Auto vars:     Size  Location     Type
;;  confirmation    1   62[BANK0 ] unsigned char 
;;  dataOut         1   61[BANK0 ] unsigned char 
;;  contentData     1   60[BANK0 ] unsigned char 
;; Return value:  Size  Location     Type
;;                  1    wreg      unsigned char 
;; Registers used:
;;		wreg, fsr0l, fsr0h, status,2, status,0, pclath, cstack
;; Tracked objects:
;;		On entry : 0/0
;;		On exit  : 0/0
;;		Unchanged: 0/0
;; Data sizes:     COMMON   BANK0   BANK1   BANK3   BANK2
;;      Params:         0       0       0       0       0
;;      Locals:         0       3       0       0       0
;;      Temps:          0       3       0       0       0
;;      Totals:         0       6       0       0       0
;;Total ram usage:        6 bytes
;; Hardware stack levels used:    1
;; Hardware stack levels required when called:    5
;; This function calls:
;;		_ClearUartBuffer
;;		_sendPackage
;;		_FillUpResponse
;; This function is called by:
;;		_HiSpeedScan0
;;		_AddNewUser
;;		_CheckUser
;; This function uses a non-reentrant model
;;
psect	text1834
	file	"C:\Users\GauravLT\Desktop\AccessControlBy4Users\AccessControlUsingFingerSense-master\AccessControlUsingFingerSense-master\PIC16F877A_R307\FingerPrintSensor_R307.c"
	line	255
	global	__size_of_GenCharacterFileFromImage
	__size_of_GenCharacterFileFromImage	equ	__end_of_GenCharacterFileFromImage-_GenCharacterFileFromImage
	
_GenCharacterFileFromImage:	
	opt	stack 0
; Regs used in _GenCharacterFileFromImage: [wreg-fsr0h+status,2+status,0+pclath+cstack]
	line	256
	
l9566:	
;FingerPrintSensor_R307.c: 256: unsigned char contentData[]={0x01};
	bsf	status, 5	;RP0=1, select bank1
	bcf	status, 6	;RP1=0, select bank1
	movf	(GenCharacterFileFromImage@F1303)^080h,w
	bcf	status, 5	;RP0=0, select bank0
	bcf	status, 6	;RP1=0, select bank0
	movwf	(??_GenCharacterFileFromImage+0)+0
	movf	(??_GenCharacterFileFromImage+0)+0,w
	movwf	(GenCharacterFileFromImage@contentData)
	line	257
;FingerPrintSensor_R307.c: 257: unsigned char dataOut[]={0xFF};
	bsf	status, 5	;RP0=1, select bank1
	bcf	status, 6	;RP1=0, select bank1
	movf	(GenCharacterFileFromImage@F1305)^080h,w
	bcf	status, 5	;RP0=0, select bank0
	bcf	status, 6	;RP1=0, select bank0
	movwf	(??_GenCharacterFileFromImage+0)+0
	movf	(??_GenCharacterFileFromImage+0)+0,w
	movwf	(GenCharacterFileFromImage@dataOut)
	line	258
;FingerPrintSensor_R307.c: 258: unsigned char confirmationCode=0xFF;
	movlw	(0FFh)
	movwf	(??_GenCharacterFileFromImage+0)+0
	movf	(??_GenCharacterFileFromImage+0)+0,w
	movwf	(GenCharacterFileFromImage@confirmationCode)
	line	260
	
l9568:	
;FingerPrintSensor_R307.c: 260: ClearUartBuffer();
	fcall	_ClearUartBuffer
	line	261
	
l9570:	
;FingerPrintSensor_R307.c: 261: sendPackage(pCmd, 0x04, 0x02, contentData);
	movlw	(04h)
	bcf	status, 5	;RP0=0, select bank0
	bcf	status, 6	;RP1=0, select bank0
	movwf	(??_GenCharacterFileFromImage+0)+0
	movf	(??_GenCharacterFileFromImage+0)+0,w
	movwf	(?_sendPackage)
	movlw	(02h)
	movwf	(??_GenCharacterFileFromImage+1)+0
	movf	(??_GenCharacterFileFromImage+1)+0,w
	movwf	0+(?_sendPackage)+01h
	movlw	(GenCharacterFileFromImage@contentData)&0ffh
	movwf	(??_GenCharacterFileFromImage+2)+0
	movf	(??_GenCharacterFileFromImage+2)+0,w
	movwf	(0+?_sendPackage+02h)
	movlw	(01h)
	fcall	_sendPackage
	line	262
	
l9572:	
;FingerPrintSensor_R307.c: 262: if(FillUpResponse(dataOut, &confirmationCode) )
	movlw	(GenCharacterFileFromImage@confirmationCode)&0ffh
	bcf	status, 5	;RP0=0, select bank0
	bcf	status, 6	;RP1=0, select bank0
	movwf	(??_GenCharacterFileFromImage+0)+0
	movf	(??_GenCharacterFileFromImage+0)+0,w
	movwf	(?_FillUpResponse)
	movlw	(GenCharacterFileFromImage@dataOut)&0ffh
	fcall	_FillUpResponse
	xorlw	0
	skipnz
	goto	u7821
	goto	u7820
u7821:
	goto	l9580
u7820:
	line	264
	
l9574:	
;FingerPrintSensor_R307.c: 263: {
;FingerPrintSensor_R307.c: 264: if(confirmationCode == 0x00) return 1;
	bcf	status, 5	;RP0=0, select bank0
	bcf	status, 6	;RP1=0, select bank0
	movf	(GenCharacterFileFromImage@confirmationCode),f
	skipz
	goto	u7831
	goto	u7830
u7831:
	goto	l9580
u7830:
	
l9576:	
	movlw	(01h)
	goto	l3151
	
l9578:	
	goto	l3151
	
l3150:	
	goto	l9580
	line	265
	
l3149:	
	line	266
	
l9580:	
;FingerPrintSensor_R307.c: 265: }
;FingerPrintSensor_R307.c: 266: return 0;
	movlw	(0)
	goto	l3151
	
l9582:	
	line	267
	
l3151:	
	return
	opt stack 0
GLOBAL	__end_of_GenCharacterFileFromImage
	__end_of_GenCharacterFileFromImage:
;; =============== function _GenCharacterFileFromImage ends ============

	signat	_GenCharacterFileFromImage,89
	global	_ScanForImage
psect	text1835,local,class=CODE,delta=2
global __ptext1835
__ptext1835:

;; *************** function _ScanForImage *****************
;; Defined at:
;;		line 241 in file "C:\Users\GauravLT\Desktop\AccessControlBy4Users\AccessControlUsingFingerSense-master\AccessControlUsingFingerSense-master\PIC16F877A_R307\FingerPrintSensor_R307.c"
;; Parameters:    Size  Location     Type
;;		None
;; Auto vars:     Size  Location     Type
;;  confirmation    1   61[BANK0 ] unsigned char 
;;  dataOut         1   60[BANK0 ] unsigned char 
;;  contentData     1   59[BANK0 ] unsigned char 
;; Return value:  Size  Location     Type
;;                  1    wreg      unsigned char 
;; Registers used:
;;		wreg, fsr0l, fsr0h, status,2, status,0, pclath, cstack
;; Tracked objects:
;;		On entry : 0/0
;;		On exit  : 0/0
;;		Unchanged: 0/0
;; Data sizes:     COMMON   BANK0   BANK1   BANK3   BANK2
;;      Params:         0       0       0       0       0
;;      Locals:         0       3       0       0       0
;;      Temps:          0       2       0       0       0
;;      Totals:         0       5       0       0       0
;;Total ram usage:        5 bytes
;; Hardware stack levels used:    1
;; Hardware stack levels required when called:    5
;; This function calls:
;;		_ClearUartBuffer
;;		_sendPackage
;;		_FillUpResponse
;; This function is called by:
;;		_HiSpeedScan0
;;		_AddNewUser
;;		_CheckUser
;; This function uses a non-reentrant model
;;
psect	text1835
	file	"C:\Users\GauravLT\Desktop\AccessControlBy4Users\AccessControlUsingFingerSense-master\AccessControlUsingFingerSense-master\PIC16F877A_R307\FingerPrintSensor_R307.c"
	line	241
	global	__size_of_ScanForImage
	__size_of_ScanForImage	equ	__end_of_ScanForImage-_ScanForImage
	
_ScanForImage:	
	opt	stack 0
; Regs used in _ScanForImage: [wreg-fsr0h+status,2+status,0+pclath+cstack]
	line	242
	
l9548:	
;FingerPrintSensor_R307.c: 242: unsigned char contentData[]={0};
	bsf	status, 5	;RP0=1, select bank1
	bcf	status, 6	;RP1=0, select bank1
	movf	(ScanForImage@F1298)^080h,w
	bcf	status, 5	;RP0=0, select bank0
	bcf	status, 6	;RP1=0, select bank0
	movwf	(??_ScanForImage+0)+0
	movf	(??_ScanForImage+0)+0,w
	movwf	(ScanForImage@contentData)
	line	243
;FingerPrintSensor_R307.c: 243: unsigned char dataOut[]={0xFF};
	bsf	status, 5	;RP0=1, select bank1
	bcf	status, 6	;RP1=0, select bank1
	movf	(ScanForImage@F1300)^080h,w
	bcf	status, 5	;RP0=0, select bank0
	bcf	status, 6	;RP1=0, select bank0
	movwf	(??_ScanForImage+0)+0
	movf	(??_ScanForImage+0)+0,w
	movwf	(ScanForImage@dataOut)
	line	244
;FingerPrintSensor_R307.c: 244: unsigned char confirmationCode=0xFF;
	movlw	(0FFh)
	movwf	(??_ScanForImage+0)+0
	movf	(??_ScanForImage+0)+0,w
	movwf	(ScanForImage@confirmationCode)
	line	246
	
l9550:	
;FingerPrintSensor_R307.c: 246: ClearUartBuffer();
	fcall	_ClearUartBuffer
	line	247
	
l9552:	
;FingerPrintSensor_R307.c: 247: sendPackage(pCmd, 0x03, 0x01, contentData);
	movlw	(03h)
	bcf	status, 5	;RP0=0, select bank0
	bcf	status, 6	;RP1=0, select bank0
	movwf	(??_ScanForImage+0)+0
	movf	(??_ScanForImage+0)+0,w
	movwf	(?_sendPackage)
	clrf	0+(?_sendPackage)+01h
	bsf	status,0
	rlf	0+(?_sendPackage)+01h,f
	movlw	(ScanForImage@contentData)&0ffh
	movwf	(??_ScanForImage+1)+0
	movf	(??_ScanForImage+1)+0,w
	movwf	(0+?_sendPackage+02h)
	movlw	(01h)
	fcall	_sendPackage
	line	248
	
l9554:	
;FingerPrintSensor_R307.c: 248: if(FillUpResponse(dataOut, &confirmationCode) )
	movlw	(ScanForImage@confirmationCode)&0ffh
	bcf	status, 5	;RP0=0, select bank0
	bcf	status, 6	;RP1=0, select bank0
	movwf	(??_ScanForImage+0)+0
	movf	(??_ScanForImage+0)+0,w
	movwf	(?_FillUpResponse)
	movlw	(ScanForImage@dataOut)&0ffh
	fcall	_FillUpResponse
	xorlw	0
	skipnz
	goto	u7801
	goto	u7800
u7801:
	goto	l9562
u7800:
	line	250
	
l9556:	
;FingerPrintSensor_R307.c: 249: {
;FingerPrintSensor_R307.c: 250: if(confirmationCode == 0x00) return 1;
	bcf	status, 5	;RP0=0, select bank0
	bcf	status, 6	;RP1=0, select bank0
	movf	(ScanForImage@confirmationCode),f
	skipz
	goto	u7811
	goto	u7810
u7811:
	goto	l9562
u7810:
	
l9558:	
	movlw	(01h)
	goto	l3142
	
l9560:	
	goto	l3142
	
l3141:	
	goto	l9562
	line	251
	
l3140:	
	line	252
	
l9562:	
;FingerPrintSensor_R307.c: 251: }
;FingerPrintSensor_R307.c: 252: return 0;
	movlw	(0)
	goto	l3142
	
l9564:	
	line	253
	
l3142:	
	return
	opt stack 0
GLOBAL	__end_of_ScanForImage
	__end_of_ScanForImage:
;; =============== function _ScanForImage ends ============

	signat	_ScanForImage,89
	global	_VerifyPswd
psect	text1836,local,class=CODE,delta=2
global __ptext1836
__ptext1836:

;; *************** function _VerifyPswd *****************
;; Defined at:
;;		line 228 in file "C:\Users\GauravLT\Desktop\AccessControlBy4Users\AccessControlUsingFingerSense-master\AccessControlUsingFingerSense-master\PIC16F877A_R307\FingerPrintSensor_R307.c"
;; Parameters:    Size  Location     Type
;;		None
;; Auto vars:     Size  Location     Type
;;  confirmation    1   61[BANK0 ] unsigned char 
;;  dataOut         1   60[BANK0 ] unsigned char 
;; Return value:  Size  Location     Type
;;                  1    wreg      unsigned char 
;; Registers used:
;;		wreg, fsr0l, fsr0h, status,2, status,0, pclath, cstack
;; Tracked objects:
;;		On entry : 0/0
;;		On exit  : 0/0
;;		Unchanged: 0/0
;; Data sizes:     COMMON   BANK0   BANK1   BANK3   BANK2
;;      Params:         0       0       0       0       0
;;      Locals:         0       2       0       0       0
;;      Temps:          0       3       0       0       0
;;      Totals:         0       5       0       0       0
;;Total ram usage:        5 bytes
;; Hardware stack levels used:    1
;; Hardware stack levels required when called:    5
;; This function calls:
;;		_ClearUartBuffer
;;		_sendPackage
;;		_FillUpResponse
;; This function is called by:
;;		_main
;; This function uses a non-reentrant model
;;
psect	text1836
	file	"C:\Users\GauravLT\Desktop\AccessControlBy4Users\AccessControlUsingFingerSense-master\AccessControlUsingFingerSense-master\PIC16F877A_R307\FingerPrintSensor_R307.c"
	line	228
	global	__size_of_VerifyPswd
	__size_of_VerifyPswd	equ	__end_of_VerifyPswd-_VerifyPswd
	
_VerifyPswd:	
	opt	stack 2
; Regs used in _VerifyPswd: [wreg-fsr0h+status,2+status,0+pclath+cstack]
	line	229
	
l9536:	
;FingerPrintSensor_R307.c: 229: unsigned char dataOut[]={0xFF};
	movf	(VerifyPswd@F1294),w
	bcf	status, 5	;RP0=0, select bank0
	bcf	status, 6	;RP1=0, select bank0
	movwf	(??_VerifyPswd+0)+0
	movf	(??_VerifyPswd+0)+0,w
	movwf	(VerifyPswd@dataOut)
	line	230
;FingerPrintSensor_R307.c: 230: unsigned char confirmationCode=0xFF;
	movlw	(0FFh)
	movwf	(??_VerifyPswd+0)+0
	movf	(??_VerifyPswd+0)+0,w
	movwf	(VerifyPswd@confirmationCode)
	line	232
	
l9538:	
;FingerPrintSensor_R307.c: 232: ClearUartBuffer();
	fcall	_ClearUartBuffer
	line	233
	
l9540:	
;FingerPrintSensor_R307.c: 233: sendPackage(pCmd, 0x07, 0x13, (unsigned char *)&DefModulePassword);
	movlw	(07h)
	bcf	status, 5	;RP0=0, select bank0
	bcf	status, 6	;RP1=0, select bank0
	movwf	(??_VerifyPswd+0)+0
	movf	(??_VerifyPswd+0)+0,w
	movwf	(?_sendPackage)
	movlw	(013h)
	movwf	(??_VerifyPswd+1)+0
	movf	(??_VerifyPswd+1)+0,w
	movwf	0+(?_sendPackage)+01h
	movlw	(_DefModulePassword)&0ffh
	movwf	(??_VerifyPswd+2)+0
	movf	(??_VerifyPswd+2)+0,w
	movwf	(0+?_sendPackage+02h)
	movlw	(01h)
	fcall	_sendPackage
	line	234
	
l9542:	
;FingerPrintSensor_R307.c: 234: if(FillUpResponse(dataOut, &confirmationCode) )
	movlw	(VerifyPswd@confirmationCode)&0ffh
	bcf	status, 5	;RP0=0, select bank0
	bcf	status, 6	;RP1=0, select bank0
	movwf	(??_VerifyPswd+0)+0
	movf	(??_VerifyPswd+0)+0,w
	movwf	(?_FillUpResponse)
	movlw	(VerifyPswd@dataOut)&0ffh
	fcall	_FillUpResponse
	goto	l3133
	line	236
	
l9544:	
	goto	l3133
	
l9546:	
;	Return value of _VerifyPswd is never used
	goto	l3133
	
l3132:	
	goto	l3133
	line	237
	
l3131:	
	line	239
;FingerPrintSensor_R307.c: 237: }
;FingerPrintSensor_R307.c: 238: return 0;
;	Return value of _VerifyPswd is never used
	
l3133:	
	return
	opt stack 0
GLOBAL	__end_of_VerifyPswd
	__end_of_VerifyPswd:
;; =============== function _VerifyPswd ends ============

	signat	_VerifyPswd,89
	global	_DeleteUser
psect	text1837,local,class=CODE,delta=2
global __ptext1837
__ptext1837:

;; *************** function _DeleteUser *****************
;; Defined at:
;;		line 207 in file "C:\Users\GauravLT\Desktop\AccessControlBy4Users\AccessControlUsingFingerSense-master\AccessControlUsingFingerSense-master\PIC16F877A_R307\FingerPrintSensor_R307.c"
;; Parameters:    Size  Location     Type
;;  UserNo          1    wreg     unsigned char 
;; Auto vars:     Size  Location     Type
;;  UserNo          1   64[BANK0 ] unsigned char 
;;  contentData     4   60[BANK0 ] unsigned char [4]
;;  confirmation    1   66[BANK0 ] unsigned char 
;;  dataOut         1   65[BANK0 ] unsigned char [1]
;; Return value:  Size  Location     Type
;;                  1    wreg      unsigned char 
;; Registers used:
;;		wreg, fsr0l, fsr0h, status,2, status,0, pclath, cstack
;; Tracked objects:
;;		On entry : 0/0
;;		On exit  : 0/0
;;		Unchanged: 0/0
;; Data sizes:     COMMON   BANK0   BANK1   BANK3   BANK2
;;      Params:         0       0       0       0       0
;;      Locals:         0       7       0       0       0
;;      Temps:          0       3       0       0       0
;;      Totals:         0      10       0       0       0
;;Total ram usage:       10 bytes
;; Hardware stack levels used:    1
;; Hardware stack levels required when called:    5
;; This function calls:
;;		_ClearUartBuffer
;;		_sendPackage
;;		_FillUpResponse
;; This function is called by:
;;		_AlterAdminUser
;;		_DeleteUserAfterAdminConfirm
;; This function uses a non-reentrant model
;;
psect	text1837
	file	"C:\Users\GauravLT\Desktop\AccessControlBy4Users\AccessControlUsingFingerSense-master\AccessControlUsingFingerSense-master\PIC16F877A_R307\FingerPrintSensor_R307.c"
	line	207
	global	__size_of_DeleteUser
	__size_of_DeleteUser	equ	__end_of_DeleteUser-_DeleteUser
	
_DeleteUser:	
	opt	stack 1
; Regs used in _DeleteUser: [wreg-fsr0h+status,2+status,0+pclath+cstack]
;DeleteUser@UserNo stored from wreg
	line	213
	bcf	status, 5	;RP0=0, select bank0
	bcf	status, 6	;RP1=0, select bank0
	movwf	(DeleteUser@UserNo)
	
l9518:	
;FingerPrintSensor_R307.c: 213: unsigned char contentData[]={0x00, 0x00, 0x00, 0x01};
	bsf	status, 5	;RP0=1, select bank1
	bcf	status, 6	;RP1=0, select bank1
	movf	(DeleteUser@F1289+3)^080h,w
	bcf	status, 5	;RP0=0, select bank0
	bcf	status, 6	;RP1=0, select bank0
	movwf	(DeleteUser@contentData+3)
	bsf	status, 5	;RP0=1, select bank1
	bcf	status, 6	;RP1=0, select bank1
	movf	(DeleteUser@F1289+2)^080h,w
	bcf	status, 5	;RP0=0, select bank0
	bcf	status, 6	;RP1=0, select bank0
	movwf	(DeleteUser@contentData+2)
	bsf	status, 5	;RP0=1, select bank1
	bcf	status, 6	;RP1=0, select bank1
	movf	(DeleteUser@F1289+1)^080h,w
	bcf	status, 5	;RP0=0, select bank0
	bcf	status, 6	;RP1=0, select bank0
	movwf	(DeleteUser@contentData+1)
	bsf	status, 5	;RP0=1, select bank1
	bcf	status, 6	;RP1=0, select bank1
	movf	(DeleteUser@F1289)^080h,w
	bcf	status, 5	;RP0=0, select bank0
	bcf	status, 6	;RP1=0, select bank0
	movwf	(DeleteUser@contentData)

	line	214
;FingerPrintSensor_R307.c: 214: unsigned char confirmationCode=0xFF;
	movlw	(0FFh)
	movwf	(??_DeleteUser+0)+0
	movf	(??_DeleteUser+0)+0,w
	movwf	(DeleteUser@confirmationCode)
	line	215
;FingerPrintSensor_R307.c: 215: unsigned char dataOut[1]={0xFF};
	movf	(DeleteUser@F1292),w
	movwf	(??_DeleteUser+0)+0
	movf	(??_DeleteUser+0)+0,w
	movwf	(DeleteUser@dataOut)
	line	217
;FingerPrintSensor_R307.c: 217: contentData[1]=UserNo;
	movf	(DeleteUser@UserNo),w
	movwf	(??_DeleteUser+0)+0
	movf	(??_DeleteUser+0)+0,w
	movwf	0+(DeleteUser@contentData)+01h
	line	218
	
l9520:	
;FingerPrintSensor_R307.c: 218: ClearUartBuffer();
	fcall	_ClearUartBuffer
	line	219
	
l9522:	
;FingerPrintSensor_R307.c: 219: sendPackage(pCmd, 0x07, 0x0C, contentData);
	movlw	(07h)
	bcf	status, 5	;RP0=0, select bank0
	bcf	status, 6	;RP1=0, select bank0
	movwf	(??_DeleteUser+0)+0
	movf	(??_DeleteUser+0)+0,w
	movwf	(?_sendPackage)
	movlw	(0Ch)
	movwf	(??_DeleteUser+1)+0
	movf	(??_DeleteUser+1)+0,w
	movwf	0+(?_sendPackage)+01h
	movlw	(DeleteUser@contentData)&0ffh
	movwf	(??_DeleteUser+2)+0
	movf	(??_DeleteUser+2)+0,w
	movwf	(0+?_sendPackage+02h)
	movlw	(01h)
	fcall	_sendPackage
	line	220
	
l9524:	
;FingerPrintSensor_R307.c: 220: if(FillUpResponse(dataOut, &confirmationCode) )
	movlw	(DeleteUser@confirmationCode)&0ffh
	bcf	status, 5	;RP0=0, select bank0
	bcf	status, 6	;RP1=0, select bank0
	movwf	(??_DeleteUser+0)+0
	movf	(??_DeleteUser+0)+0,w
	movwf	(?_FillUpResponse)
	movlw	(DeleteUser@dataOut)&0ffh
	fcall	_FillUpResponse
	xorlw	0
	skipnz
	goto	u7781
	goto	u7780
u7781:
	goto	l9532
u7780:
	line	222
	
l9526:	
;FingerPrintSensor_R307.c: 221: {
;FingerPrintSensor_R307.c: 222: if(confirmationCode == 0x00) return 1;
	bcf	status, 5	;RP0=0, select bank0
	bcf	status, 6	;RP1=0, select bank0
	movf	(DeleteUser@confirmationCode),f
	skipz
	goto	u7791
	goto	u7790
u7791:
	goto	l9532
u7790:
	
l9528:	
	movlw	(01h)
	goto	l3126
	
l9530:	
	goto	l3126
	
l3125:	
	goto	l9532
	line	223
	
l3124:	
	line	224
	
l9532:	
;FingerPrintSensor_R307.c: 223: }
;FingerPrintSensor_R307.c: 224: return 0;
	movlw	(0)
	goto	l3126
	
l9534:	
	line	225
	
l3126:	
	return
	opt stack 0
GLOBAL	__end_of_DeleteUser
	__end_of_DeleteUser:
;; =============== function _DeleteUser ends ============

	signat	_DeleteUser,4217
	global	_EraseAllUsers
psect	text1838,local,class=CODE,delta=2
global __ptext1838
__ptext1838:

;; *************** function _EraseAllUsers *****************
;; Defined at:
;;		line 356 in file "C:\Users\GauravLT\Desktop\AccessControlBy4Users\AccessControlUsingFingerSense-master\AccessControlUsingFingerSense-master\PIC16F877A_R307\FingerPrintSensor_R307.c"
;; Parameters:    Size  Location     Type
;;		None
;; Auto vars:     Size  Location     Type
;;  confirmation    1   62[BANK0 ] unsigned char 
;;  dataOut         1   61[BANK0 ] unsigned char 
;;  contentData     1   60[BANK0 ] unsigned char 
;; Return value:  Size  Location     Type
;;                  1    wreg      unsigned char 
;; Registers used:
;;		wreg, fsr0l, fsr0h, status,2, status,0, pclath, cstack
;; Tracked objects:
;;		On entry : 0/0
;;		On exit  : 0/0
;;		Unchanged: 0/0
;; Data sizes:     COMMON   BANK0   BANK1   BANK3   BANK2
;;      Params:         0       0       0       0       0
;;      Locals:         0       3       0       0       0
;;      Temps:          0       3       0       0       0
;;      Totals:         0       6       0       0       0
;;Total ram usage:        6 bytes
;; Hardware stack levels used:    1
;; Hardware stack levels required when called:    5
;; This function calls:
;;		_ClearUartBuffer
;;		_sendPackage
;;		_FillUpResponse
;; This function is called by:
;;		_EraseAllUsersAfterAdminConfirm
;; This function uses a non-reentrant model
;;
psect	text1838
	file	"C:\Users\GauravLT\Desktop\AccessControlBy4Users\AccessControlUsingFingerSense-master\AccessControlUsingFingerSense-master\PIC16F877A_R307\FingerPrintSensor_R307.c"
	line	356
	global	__size_of_EraseAllUsers
	__size_of_EraseAllUsers	equ	__end_of_EraseAllUsers-_EraseAllUsers
	
_EraseAllUsers:	
	opt	stack 1
; Regs used in _EraseAllUsers: [wreg-fsr0h+status,2+status,0+pclath+cstack]
	line	363
	
l9506:	
;FingerPrintSensor_R307.c: 363: unsigned char contentData[]={0x00};
	bsf	status, 5	;RP0=1, select bank1
	bcf	status, 6	;RP1=0, select bank1
	movf	(EraseAllUsers@F1327)^080h,w
	bcf	status, 5	;RP0=0, select bank0
	bcf	status, 6	;RP1=0, select bank0
	movwf	(??_EraseAllUsers+0)+0
	movf	(??_EraseAllUsers+0)+0,w
	movwf	(EraseAllUsers@contentData)
	line	364
;FingerPrintSensor_R307.c: 364: unsigned char confirmationCode=0xFF;
	movlw	(0FFh)
	movwf	(??_EraseAllUsers+0)+0
	movf	(??_EraseAllUsers+0)+0,w
	movwf	(EraseAllUsers@confirmationCode)
	line	365
;FingerPrintSensor_R307.c: 365: unsigned char dataOut[]={0xFF};
	bsf	status, 5	;RP0=1, select bank1
	bcf	status, 6	;RP1=0, select bank1
	movf	(EraseAllUsers@F1330)^080h,w
	bcf	status, 5	;RP0=0, select bank0
	bcf	status, 6	;RP1=0, select bank0
	movwf	(??_EraseAllUsers+0)+0
	movf	(??_EraseAllUsers+0)+0,w
	movwf	(EraseAllUsers@dataOut)
	line	367
	
l9508:	
;FingerPrintSensor_R307.c: 367: ClearUartBuffer();
	fcall	_ClearUartBuffer
	line	368
	
l9510:	
;FingerPrintSensor_R307.c: 368: sendPackage(pCmd, 0x03, 0x0D, contentData);
	movlw	(03h)
	bcf	status, 5	;RP0=0, select bank0
	bcf	status, 6	;RP1=0, select bank0
	movwf	(??_EraseAllUsers+0)+0
	movf	(??_EraseAllUsers+0)+0,w
	movwf	(?_sendPackage)
	movlw	(0Dh)
	movwf	(??_EraseAllUsers+1)+0
	movf	(??_EraseAllUsers+1)+0,w
	movwf	0+(?_sendPackage)+01h
	movlw	(EraseAllUsers@contentData)&0ffh
	movwf	(??_EraseAllUsers+2)+0
	movf	(??_EraseAllUsers+2)+0,w
	movwf	(0+?_sendPackage+02h)
	movlw	(01h)
	fcall	_sendPackage
	line	369
	
l9512:	
;FingerPrintSensor_R307.c: 369: if(FillUpResponse(dataOut, &confirmationCode) )
	movlw	(EraseAllUsers@confirmationCode)&0ffh
	bcf	status, 5	;RP0=0, select bank0
	bcf	status, 6	;RP1=0, select bank0
	movwf	(??_EraseAllUsers+0)+0
	movf	(??_EraseAllUsers+0)+0,w
	movwf	(?_FillUpResponse)
	movlw	(EraseAllUsers@dataOut)&0ffh
	fcall	_FillUpResponse
	goto	l3197
	line	371
	
l9514:	
	goto	l3197
	
l9516:	
;	Return value of _EraseAllUsers is never used
	goto	l3197
	
l3196:	
	goto	l3197
	line	372
	
l3195:	
	line	374
;FingerPrintSensor_R307.c: 372: }
;FingerPrintSensor_R307.c: 373: return 0;
;	Return value of _EraseAllUsers is never used
	
l3197:	
	return
	opt stack 0
GLOBAL	__end_of_EraseAllUsers
	__end_of_EraseAllUsers:
;; =============== function _EraseAllUsers ends ============

	signat	_EraseAllUsers,89
	global	_LcdPrint
psect	text1839,local,class=CODE,delta=2
global __ptext1839
__ptext1839:

;; *************** function _LcdPrint *****************
;; Defined at:
;;		line 53 in file "C:\Users\GauravLT\Desktop\AccessControlBy4Users\AccessControlUsingFingerSense-master\AccessControlUsingFingerSense-master\PIC16F877A_R307\lcd.c"
;; Parameters:    Size  Location     Type
;;  s               2   11[BANK0 ] PTR const unsigned char 
;;		 -> STR_37(29), STR_36(33), STR_35(26), STR_34(30), 
;;		 -> STR_33(30), STR_32(8), STR_31(18), STR_30(20), 
;;		 -> STR_29(14), STR_28(22), STR_27(19), DeleteUserAfterAdminConfirm@buff(10), 
;;		 -> STR_26(12), STR_25(12), STR_24(28), STR_23(20), 
;;		 -> STR_22(24), AddNewUserAfterAdminConfirm@buff_2228(10), STR_21(21), STR_20(22), 
;;		 -> STR_19(19), AddNewUserAfterAdminConfirm@buff(5), STR_18(12), STR_17(18), 
;;		 -> STR_16(12), STR_15(28), STR_14(25), STR_13(20), 
;;		 -> STR_12(13), STR_11(24), STR_10(18), STR_9(20), 
;;		 -> STR_8(14), STR_7(12), STR_6(28), UserNoArr(36), 
;;		 -> STR_5(13), STR_4(19), STR_3(18), STR_2(12), 
;;		 -> STR_1(28), 
;;  rowNo           1   13[BANK0 ] unsigned char 
;;  colNo           1   14[BANK0 ] unsigned char 
;; Auto vars:     Size  Location     Type
;;		None
;; Return value:  Size  Location     Type
;;		None               void
;; Registers used:
;;		wreg, fsr0l, fsr0h, status,2, status,0, btemp+1, pclath, cstack
;; Tracked objects:
;;		On entry : 0/0
;;		On exit  : 0/0
;;		Unchanged: 0/0
;; Data sizes:     COMMON   BANK0   BANK1   BANK3   BANK2
;;      Params:         0       4       0       0       0
;;      Locals:         0       0       0       0       0
;;      Temps:          0       4       0       0       0
;;      Totals:         0       8       0       0       0
;;Total ram usage:        8 bytes
;; Hardware stack levels used:    1
;; Hardware stack levels required when called:    5
;; This function calls:
;;		_UploadLcdBuffer
;; This function is called by:
;;		_EraseAllUsersAfterAdminConfirm
;;		_ControlAccess
;;		_AlterAdminUser
;;		_AddNewUserAfterAdminConfirm
;;		_DeleteUserAfterAdminConfirm
;;		_menu
;;		_main
;; This function uses a non-reentrant model
;;
psect	text1839
	file	"C:\Users\GauravLT\Desktop\AccessControlBy4Users\AccessControlUsingFingerSense-master\AccessControlUsingFingerSense-master\PIC16F877A_R307\lcd.c"
	line	53
	global	__size_of_LcdPrint
	__size_of_LcdPrint	equ	__end_of_LcdPrint-_LcdPrint
	
_LcdPrint:	
	opt	stack 1
; Regs used in _LcdPrint: [wreg-fsr0h+status,2+status,0+btemp+1+pclath+cstack]
	line	54
	
l9484:	
;lcd.c: 54: while(*s!=0)
	goto	l711
	
l712:	
	line	56
	
l9486:	
;lcd.c: 55: {
;lcd.c: 56: if(*s == '\n')
	bcf	status, 5	;RP0=0, select bank0
	bcf	status, 6	;RP1=0, select bank0
	movf	(LcdPrint@s+1),w
	movwf	btemp+1
	movf	(LcdPrint@s),w
	movwf	fsr0
	fcall	stringtab
	xorlw	0Ah
	skipz
	goto	u7721
	goto	u7720
u7721:
	goto	l9494
u7720:
	line	58
	
l9488:	
;lcd.c: 57: {
;lcd.c: 58: if(++rowNo > 16) break;
	movlw	(01h)
	movwf	(??_LcdPrint+0)+0
	movf	(??_LcdPrint+0)+0,w
	addwf	(LcdPrint@rowNo),f
	movlw	(011h)
	subwf	((LcdPrint@rowNo)),w
	skipc
	goto	u7731
	goto	u7730
u7731:
	goto	l714
u7730:
	goto	l9504
	
l9490:	
	goto	l9504
	
l9492:	
	goto	l9502
	line	59
	
l714:	
;lcd.c: 59: else colNo=0;
	clrf	(LcdPrint@colNo)
	goto	l9502
	
l716:	
	line	60
;lcd.c: 60: }
	goto	l9502
	line	61
	
l713:	
	
l9494:	
;lcd.c: 61: else if(rowNo<16 && colNo<16)
	movlw	(010h)
	subwf	(LcdPrint@rowNo),w
	skipnc
	goto	u7741
	goto	u7740
u7741:
	goto	l9502
u7740:
	
l9496:	
	movlw	(010h)
	subwf	(LcdPrint@colNo),w
	skipnc
	goto	u7751
	goto	u7750
u7751:
	goto	l9502
u7750:
	line	63
	
l9498:	
;lcd.c: 62: {
;lcd.c: 63: LcdBuffer[rowNo][colNo] = *s;
	movf	(LcdPrint@s+1),w
	movwf	btemp+1
	movf	(LcdPrint@s),w
	movwf	fsr0
	fcall	stringtab
	movwf	(??_LcdPrint+0)+0
	movf	(LcdPrint@rowNo),w
	movwf	(??_LcdPrint+1)+0
	movlw	04h
u7765:
	clrc
	rlf	(??_LcdPrint+1)+0,f
	addlw	-1
	skipz
	goto	u7765
	movlw	(_LcdBuffer)&0ffh
	addwf	0+(??_LcdPrint+1)+0,w
	movwf	(??_LcdPrint+2)+0
	movf	(LcdPrint@colNo),w
	addwf	0+(??_LcdPrint+2)+0,w
	movwf	(??_LcdPrint+3)+0
	movf	0+(??_LcdPrint+3)+0,w
	movwf	fsr0
	movf	(??_LcdPrint+0)+0,w
	bsf	status, 7	;select IRP bank3
	movwf	indf
	line	64
	
l9500:	
;lcd.c: 64: colNo++;
	movlw	(01h)
	movwf	(??_LcdPrint+0)+0
	movf	(??_LcdPrint+0)+0,w
	addwf	(LcdPrint@colNo),f
	goto	l9502
	line	65
	
l718:	
	goto	l9502
	line	66
	
l717:	
	
l9502:	
;lcd.c: 65: }
;lcd.c: 66: s++;
	movlw	low(01h)
	addwf	(LcdPrint@s),f
	skipnc
	incf	(LcdPrint@s+1),f
	movlw	high(01h)
	addwf	(LcdPrint@s+1),f
	line	67
	
l711:	
	line	54
	bcf	status, 5	;RP0=0, select bank0
	bcf	status, 6	;RP1=0, select bank0
	movf	(LcdPrint@s+1),w
	movwf	btemp+1
	movf	(LcdPrint@s),w
	movwf	fsr0
	fcall	stringtab
	iorlw	0
	skipz
	goto	u7771
	goto	u7770
u7771:
	goto	l9486
u7770:
	goto	l9504
	
l715:	
	line	68
	
l9504:	
;lcd.c: 67: }
;lcd.c: 68: UploadLcdBuffer();
	fcall	_UploadLcdBuffer
	line	69
	
l719:	
	return
	opt stack 0
GLOBAL	__end_of_LcdPrint
	__end_of_LcdPrint:
;; =============== function _LcdPrint ends ============

	signat	_LcdPrint,12408
	global	_LcdInit
psect	text1840,local,class=CODE,delta=2
global __ptext1840
__ptext1840:

;; *************** function _LcdInit *****************
;; Defined at:
;;		line 11 in file "C:\Users\GauravLT\Desktop\AccessControlBy4Users\AccessControlUsingFingerSense-master\AccessControlUsingFingerSense-master\PIC16F877A_R307\lcd.c"
;; Parameters:    Size  Location     Type
;;		None
;; Auto vars:     Size  Location     Type
;;		None
;; Return value:  Size  Location     Type
;;		None               void
;; Registers used:
;;		wreg, fsr0l, fsr0h, status,2, status,0, pclath, cstack
;; Tracked objects:
;;		On entry : 0/0
;;		On exit  : 0/0
;;		Unchanged: 0/0
;; Data sizes:     COMMON   BANK0   BANK1   BANK3   BANK2
;;      Params:         0       0       0       0       0
;;      Locals:         0       0       0       0       0
;;      Temps:          0       1       0       0       0
;;      Totals:         0       1       0       0       0
;;Total ram usage:        1 bytes
;; Hardware stack levels used:    1
;; Hardware stack levels required when called:    5
;; This function calls:
;;		_LcdDelay
;;		_SendByte
;;		_LcdClear
;; This function is called by:
;;		_main
;; This function uses a non-reentrant model
;;
psect	text1840
	file	"C:\Users\GauravLT\Desktop\AccessControlBy4Users\AccessControlUsingFingerSense-master\AccessControlUsingFingerSense-master\PIC16F877A_R307\lcd.c"
	line	11
	global	__size_of_LcdInit
	__size_of_LcdInit	equ	__end_of_LcdInit-_LcdInit
	
_LcdInit:	
	opt	stack 2
; Regs used in _LcdInit: [wreg-fsr0h+status,2+status,0+pclath+cstack]
	line	12
	
l9472:	
;lcd.c: 12: TRISD = 0x00;
	bsf	status, 5	;RP0=1, select bank1
	bcf	status, 6	;RP1=0, select bank1
	clrf	(136)^080h	;volatile
	line	13
;lcd.c: 13: TRISB = 0X00;
	clrf	(134)^080h	;volatile
	line	17
	
l9474:	
;lcd.c: 17: RD6=0;
	bcf	status, 5	;RP0=0, select bank0
	bcf	status, 6	;RP1=0, select bank0
	bcf	(70/8),(70)&7
	line	18
;lcd.c: 18: PORTD=0;
	clrf	(8)	;volatile
	line	19
	
l9476:	
;lcd.c: 19: LcdDelay(1000);
	movlw	low(03E8h)
	movwf	(?_LcdDelay)
	movlw	high(03E8h)
	movwf	((?_LcdDelay))+1
	fcall	_LcdDelay
	line	20
	
l9478:	
;lcd.c: 20: SendByte(Cmd, 0x38);
	movlw	(038h)
	bcf	status, 5	;RP0=0, select bank0
	bcf	status, 6	;RP1=0, select bank0
	movwf	(??_LcdInit+0)+0
	movf	(??_LcdInit+0)+0,w
	movwf	(?_SendByte)
	movlw	(0)
	fcall	_SendByte
	line	21
	
l9480:	
;lcd.c: 21: SendByte(Cmd, 0x0C);
	movlw	(0Ch)
	bcf	status, 5	;RP0=0, select bank0
	bcf	status, 6	;RP1=0, select bank0
	movwf	(??_LcdInit+0)+0
	movf	(??_LcdInit+0)+0,w
	movwf	(?_SendByte)
	movlw	(0)
	fcall	_SendByte
	line	22
	
l9482:	
;lcd.c: 22: LcdClear();
	fcall	_LcdClear
	line	23
	
l695:	
	return
	opt stack 0
GLOBAL	__end_of_LcdInit
	__end_of_LcdInit:
;; =============== function _LcdInit ends ============

	signat	_LcdInit,88
	global	_sendPackage
psect	text1841,local,class=CODE,delta=2
global __ptext1841
__ptext1841:

;; *************** function _sendPackage *****************
;; Defined at:
;;		line 89 in file "C:\Users\GauravLT\Desktop\AccessControlBy4Users\AccessControlUsingFingerSense-master\AccessControlUsingFingerSense-master\PIC16F877A_R307\FingerPrintSensor_R307.c"
;; Parameters:    Size  Location     Type
;;  identifier      1    wreg     enum E1115
;;  length          1   11[BANK0 ] unsigned char 
;;  instruction     1   12[BANK0 ] enum E1090
;;  content         1   13[BANK0 ] PTR unsigned char 
;;		 -> AddUserC@contentData(4), AddUserB@contentData(1), AddUserA@contentData(1), EraseAllUsers@contentData(1), 
;;		 -> HiSpeedScan@contentData(5), MatchTemplate@contentData(1), LoadFingerTemplate@contentData(3), GenCharacterFileFromImage@contentData(1), 
;;		 -> ScanForImage@contentData(1), DefModulePassword(4), DeleteUser@contentData(4), 
;; Auto vars:     Size  Location     Type
;;  identifier      1   22[BANK0 ] enum E1115
;;  i               2   23[BANK0 ] unsigned int 
;; Return value:  Size  Location     Type
;;		None               void
;; Registers used:
;;		wreg, fsr0l, fsr0h, status,2, status,0, pclath, cstack
;; Tracked objects:
;;		On entry : 0/0
;;		On exit  : 0/0
;;		Unchanged: 0/0
;; Data sizes:     COMMON   BANK0   BANK1   BANK3   BANK2
;;      Params:         0       3       0       0       0
;;      Locals:         0       3       0       0       0
;;      Temps:          0       8       0       0       0
;;      Totals:         0      14       0       0       0
;;Total ram usage:       14 bytes
;; Hardware stack levels used:    1
;; Hardware stack levels required when called:    4
;; This function calls:
;;		_SendUartValue
;;		_SendUartByte
;; This function is called by:
;;		_DeleteUser
;;		_VerifyPswd
;;		_ScanForImage
;;		_GenCharacterFileFromImage
;;		_HiSpeedScan
;;		_EraseAllUsers
;;		_AddUserA
;;		_AddUserB
;;		_AddUserC
;;		_LoadFingerTemplate
;;		_MatchTemplate
;; This function uses a non-reentrant model
;;
psect	text1841
	file	"C:\Users\GauravLT\Desktop\AccessControlBy4Users\AccessControlUsingFingerSense-master\AccessControlUsingFingerSense-master\PIC16F877A_R307\FingerPrintSensor_R307.c"
	line	89
	global	__size_of_sendPackage
	__size_of_sendPackage	equ	__end_of_sendPackage-_sendPackage
	
_sendPackage:	
	opt	stack 1
; Regs used in _sendPackage: [wreg-fsr0h+status,2+status,0+pclath+cstack]
;sendPackage@identifier stored from wreg
	bcf	status, 5	;RP0=0, select bank0
	bcf	status, 6	;RP1=0, select bank0
	movwf	(sendPackage@identifier)
	line	90
	
l9434:	
;FingerPrintSensor_R307.c: 90: unsigned int i=0;
	clrf	(sendPackage@i)
	clrf	(sendPackage@i+1)
	line	91
;FingerPrintSensor_R307.c: 91: _Package.CheckSum = 0;
	bsf	status, 5	;RP0=1, select bank1
	bcf	status, 6	;RP1=0, select bank1
	clrf	0+(__Package)^080h+0Bh
	clrf	1+(__Package)^080h+0Bh
	line	93
	
l9436:	
;FingerPrintSensor_R307.c: 93: _Package.Header = PackageHeader;
	movf	(_PackageHeader+1)^080h,w
	clrf	(__Package+1)^080h
	addwf	(__Package+1)^080h
	movf	(_PackageHeader)^080h,w
	clrf	(__Package)^080h
	addwf	(__Package)^080h

	line	94
	
l9438:	
;FingerPrintSensor_R307.c: 94: SendUartValue(_Package.Header, sizeof(_Package.Header));
	movf	(__Package)^080h,w
	bcf	status, 5	;RP0=0, select bank0
	bcf	status, 6	;RP1=0, select bank0
	movwf	(?_SendUartValue)
	bsf	status, 5	;RP0=1, select bank1
	bcf	status, 6	;RP1=0, select bank1
	movf	(__Package+1)^080h,w
	bcf	status, 5	;RP0=0, select bank0
	bcf	status, 6	;RP1=0, select bank0
	movwf	((?_SendUartValue))+1
	clrf	2+((?_SendUartValue))
	clrf	3+((?_SendUartValue))
	movlw	(02h)
	movwf	(??_sendPackage+0)+0
	movf	(??_sendPackage+0)+0,w
	movwf	0+(?_SendUartValue)+04h
	fcall	_SendUartValue
	line	96
	
l9440:	
;FingerPrintSensor_R307.c: 96: _Package.Address = DefModuleAddress;
	bsf	status, 5	;RP0=1, select bank1
	bcf	status, 6	;RP1=0, select bank1
	movf	(_DefModuleAddress+3)^080h,w
	movwf	3+(__Package)^080h+02h
	movf	(_DefModuleAddress+2)^080h,w
	movwf	2+(__Package)^080h+02h
	movf	(_DefModuleAddress+1)^080h,w
	movwf	1+(__Package)^080h+02h
	movf	(_DefModuleAddress)^080h,w
	movwf	0+(__Package)^080h+02h

	line	97
	
l9442:	
;FingerPrintSensor_R307.c: 97: SendUartValue(_Package.Address, sizeof(_Package.Address));
	movlw	(02h)
	addlw	__Package&0ffh
	movwf	fsr0
	bcf	status, 7	;select IRP bank1
	movf	indf,w
	bcf	status, 5	;RP0=0, select bank0
	bcf	status, 6	;RP1=0, select bank0
	movwf	(?_SendUartValue)
	incf	fsr0,f
	movf	indf,w
	movwf	(?_SendUartValue+1)
	incf	fsr0,f
	movf	indf,w
	movwf	(?_SendUartValue+2)
	incf	fsr0,f
	movf	indf,w
	movwf	(?_SendUartValue+3)
	movlw	(04h)
	movwf	(??_sendPackage+0)+0
	movf	(??_sendPackage+0)+0,w
	movwf	0+(?_SendUartValue)+04h
	fcall	_SendUartValue
	line	99
	
l9444:	
;FingerPrintSensor_R307.c: 99: _Package.Identifier = identifier;
	bcf	status, 5	;RP0=0, select bank0
	bcf	status, 6	;RP1=0, select bank0
	movf	(sendPackage@identifier),w
	movwf	(??_sendPackage+0)+0
	movf	(??_sendPackage+0)+0,w
	bsf	status, 5	;RP0=1, select bank1
	bcf	status, 6	;RP1=0, select bank1
	movwf	0+(__Package)^080h+06h
	line	100
	
l9446:	
;FingerPrintSensor_R307.c: 100: SendUartValue(_Package.Identifier, sizeof(_Package.Identifier));
	movf	0+(__Package)^080h+06h,w
	bcf	status, 5	;RP0=0, select bank0
	bcf	status, 6	;RP1=0, select bank0
	movwf	(??_sendPackage+0)+0
	clrf	((??_sendPackage+0)+0+1)
	clrf	((??_sendPackage+0)+0+2)
	clrf	((??_sendPackage+0)+0+3)
	movf	3+(??_sendPackage+0)+0,w
	movwf	(?_SendUartValue+3)
	movf	2+(??_sendPackage+0)+0,w
	movwf	(?_SendUartValue+2)
	movf	1+(??_sendPackage+0)+0,w
	movwf	(?_SendUartValue+1)
	movf	0+(??_sendPackage+0)+0,w
	movwf	(?_SendUartValue)

	clrf	0+(?_SendUartValue)+04h
	bsf	status,0
	rlf	0+(?_SendUartValue)+04h,f
	fcall	_SendUartValue
	line	102
	
l9448:	
;FingerPrintSensor_R307.c: 102: _Package.Length = length;
	bcf	status, 5	;RP0=0, select bank0
	bcf	status, 6	;RP1=0, select bank0
	movf	(sendPackage@length),w
	movwf	(??_sendPackage+0)+0
	clrf	(??_sendPackage+0)+0+1
	movf	0+(??_sendPackage+0)+0,w
	bsf	status, 5	;RP0=1, select bank1
	bcf	status, 6	;RP1=0, select bank1
	movwf	0+(__Package)^080h+07h
	bcf	status, 5	;RP0=0, select bank0
	bcf	status, 6	;RP1=0, select bank0
	movf	1+(??_sendPackage+0)+0,w
	bsf	status, 5	;RP0=1, select bank1
	bcf	status, 6	;RP1=0, select bank1
	movwf	1+(__Package)^080h+07h
	line	103
	
l9450:	
;FingerPrintSensor_R307.c: 103: SendUartValue(_Package.Length, sizeof(_Package.Length));
	movf	0+(__Package)^080h+07h,w
	bcf	status, 5	;RP0=0, select bank0
	bcf	status, 6	;RP1=0, select bank0
	movwf	(?_SendUartValue)
	bsf	status, 5	;RP0=1, select bank1
	bcf	status, 6	;RP1=0, select bank1
	movf	1+(__Package)^080h+07h,w
	bcf	status, 5	;RP0=0, select bank0
	bcf	status, 6	;RP1=0, select bank0
	movwf	((?_SendUartValue))+1
	clrf	2+((?_SendUartValue))
	clrf	3+((?_SendUartValue))
	movlw	(02h)
	movwf	(??_sendPackage+0)+0
	movf	(??_sendPackage+0)+0,w
	movwf	0+(?_SendUartValue)+04h
	fcall	_SendUartValue
	line	105
	
l9452:	
;FingerPrintSensor_R307.c: 105: _Package.Instruction = instruction;
	bcf	status, 5	;RP0=0, select bank0
	bcf	status, 6	;RP1=0, select bank0
	movf	(sendPackage@instruction),w
	movwf	(??_sendPackage+0)+0
	movf	(??_sendPackage+0)+0,w
	bsf	status, 5	;RP0=1, select bank1
	bcf	status, 6	;RP1=0, select bank1
	movwf	0+(__Package)^080h+09h
	line	106
	
l9454:	
;FingerPrintSensor_R307.c: 106: SendUartValue(_Package.Instruction, sizeof(_Package.Instruction));
	movf	0+(__Package)^080h+09h,w
	bcf	status, 5	;RP0=0, select bank0
	bcf	status, 6	;RP1=0, select bank0
	movwf	(??_sendPackage+0)+0
	clrf	((??_sendPackage+0)+0+1)
	clrf	((??_sendPackage+0)+0+2)
	clrf	((??_sendPackage+0)+0+3)
	movf	3+(??_sendPackage+0)+0,w
	movwf	(?_SendUartValue+3)
	movf	2+(??_sendPackage+0)+0,w
	movwf	(?_SendUartValue+2)
	movf	1+(??_sendPackage+0)+0,w
	movwf	(?_SendUartValue+1)
	movf	0+(??_sendPackage+0)+0,w
	movwf	(?_SendUartValue)

	clrf	0+(?_SendUartValue)+04h
	bsf	status,0
	rlf	0+(?_SendUartValue)+04h,f
	fcall	_SendUartValue
	line	108
	
l9456:	
;FingerPrintSensor_R307.c: 108: _Package.Content = content;
	bcf	status, 5	;RP0=0, select bank0
	bcf	status, 6	;RP1=0, select bank0
	movf	(sendPackage@content),w
	movwf	(??_sendPackage+0)+0
	movf	(??_sendPackage+0)+0,w
	bsf	status, 5	;RP0=1, select bank1
	bcf	status, 6	;RP1=0, select bank1
	movwf	(0+__Package+0Ah)^080h
	line	109
	
l9458:	
;FingerPrintSensor_R307.c: 109: for(i=0; i<_Package.Length-3; i++)
	bcf	status, 5	;RP0=0, select bank0
	bcf	status, 6	;RP1=0, select bank0
	clrf	(sendPackage@i)
	clrf	(sendPackage@i+1)
	goto	l9466
	line	110
	
l3090:	
	line	111
	
l9460:	
;FingerPrintSensor_R307.c: 110: {
;FingerPrintSensor_R307.c: 111: SendUartByte(*(_Package.Content+i));
	movf	(sendPackage@i),w
	bsf	status, 5	;RP0=1, select bank1
	bcf	status, 6	;RP1=0, select bank1
	addwf	(0+__Package+0Ah)^080h,w
	bcf	status, 5	;RP0=0, select bank0
	bcf	status, 6	;RP1=0, select bank0
	movwf	(??_sendPackage+0)+0
	movf	0+(??_sendPackage+0)+0,w
	movwf	fsr0
	bcf	status, 7	;select IRP bank0
	movf	indf,w
	fcall	_SendUartByte
	line	112
	
l9462:	
;FingerPrintSensor_R307.c: 112: _Package.CheckSum += *(_Package.Content+i);
	bcf	status, 5	;RP0=0, select bank0
	bcf	status, 6	;RP1=0, select bank0
	movf	(sendPackage@i),w
	bsf	status, 5	;RP0=1, select bank1
	bcf	status, 6	;RP1=0, select bank1
	addwf	(0+__Package+0Ah)^080h,w
	bcf	status, 5	;RP0=0, select bank0
	bcf	status, 6	;RP1=0, select bank0
	movwf	(??_sendPackage+0)+0
	movf	0+(??_sendPackage+0)+0,w
	movwf	fsr0
	bcf	status, 7	;select IRP bank0
	movf	indf,w
	movwf	(??_sendPackage+1)+0
	clrf	(??_sendPackage+1)+0+1
	movf	(??_sendPackage+1)+0,w
	bsf	status, 5	;RP0=1, select bank1
	bcf	status, 6	;RP1=0, select bank1
	addwf	0+(__Package)^080h+0Bh,f
	skipnc
	incf	1+(__Package)^080h+0Bh,f
	bcf	status, 5	;RP0=0, select bank0
	bcf	status, 6	;RP1=0, select bank0
	movf	(??_sendPackage+1)+1,w
	bsf	status, 5	;RP0=1, select bank1
	bcf	status, 6	;RP1=0, select bank1
	addwf	1+(__Package)^080h+0Bh,f
	line	109
	
l9464:	
	movlw	low(01h)
	bcf	status, 5	;RP0=0, select bank0
	bcf	status, 6	;RP1=0, select bank0
	addwf	(sendPackage@i),f
	skipnc
	incf	(sendPackage@i+1),f
	movlw	high(01h)
	addwf	(sendPackage@i+1),f
	goto	l9466
	
l3089:	
	
l9466:	
	bsf	status, 5	;RP0=1, select bank1
	bcf	status, 6	;RP1=0, select bank1
	movf	0+(__Package)^080h+07h,w
	addlw	low(0FFFDh)
	bcf	status, 5	;RP0=0, select bank0
	bcf	status, 6	;RP1=0, select bank0
	movwf	(??_sendPackage+0)+0
	bsf	status, 5	;RP0=1, select bank1
	bcf	status, 6	;RP1=0, select bank1
	movf	1+(__Package)^080h+07h,w
	skipnc
	addlw	1
	addlw	high(0FFFDh)
	bcf	status, 5	;RP0=0, select bank0
	bcf	status, 6	;RP1=0, select bank0
	movwf	1+(??_sendPackage+0)+0
	movf	1+(??_sendPackage+0)+0,w
	subwf	(sendPackage@i+1),w
	skipz
	goto	u7705
	movf	0+(??_sendPackage+0)+0,w
	subwf	(sendPackage@i),w
u7705:
	skipc
	goto	u7701
	goto	u7700
u7701:
	goto	l9460
u7700:
	goto	l9468
	
l3091:	
	line	115
	
l9468:	
;FingerPrintSensor_R307.c: 113: }
;FingerPrintSensor_R307.c: 114: _Package.CheckSum += _Package.Identifier + (unsigned char)(_Package.Length >> 8) +
;FingerPrintSensor_R307.c: 115: (unsigned char)(_Package.Length & 0xFF) + _Package.Instruction;
	movlw	(07h)
	addlw	__Package&0ffh
	movwf	fsr0
	bcf	status, 7	;select IRP bank1
	movf	indf,w
	movwf	(??_sendPackage+0)+0+0
	incf	fsr0,f
	movf	indf,w
	movwf	(??_sendPackage+0)+0+1
	movlw	08h
u7715:
	clrc
	rrf	(??_sendPackage+0)+1,f
	rrf	(??_sendPackage+0)+0,f
	addlw	-1
	skipz
	goto	u7715
	bsf	status, 5	;RP0=1, select bank1
	bcf	status, 6	;RP1=0, select bank1
	movf	0+(__Package)^080h+06h,w
	bcf	status, 5	;RP0=0, select bank0
	bcf	status, 6	;RP1=0, select bank0
	addwf	0+(??_sendPackage+0)+0,w
	movwf	(??_sendPackage+2)+0
	clrf	(??_sendPackage+2)+0+1
	rlf	1+(??_sendPackage+2)+0,f
	
	bsf	status, 5	;RP0=1, select bank1
	bcf	status, 6	;RP1=0, select bank1
	movf	0+(__Package)^080h+07h,w
	bcf	status, 5	;RP0=0, select bank0
	bcf	status, 6	;RP1=0, select bank0
	addwf	0+(??_sendPackage+2)+0,w
	movwf	(??_sendPackage+4)+0
	movlw	0
	skipnc
	movlw	1
	addwf	1+(??_sendPackage+2)+0,w
	movwf	1+(??_sendPackage+4)+0
	bsf	status, 5	;RP0=1, select bank1
	bcf	status, 6	;RP1=0, select bank1
	movf	0+(__Package)^080h+09h,w
	bcf	status, 5	;RP0=0, select bank0
	bcf	status, 6	;RP1=0, select bank0
	addwf	0+(??_sendPackage+4)+0,w
	movwf	(??_sendPackage+6)+0
	movlw	0
	skipnc
	movlw	1
	addwf	1+(??_sendPackage+4)+0,w
	movwf	1+(??_sendPackage+6)+0
	movf	(??_sendPackage+6)+0,w
	bsf	status, 5	;RP0=1, select bank1
	bcf	status, 6	;RP1=0, select bank1
	addwf	0+(__Package)^080h+0Bh,f
	skipnc
	incf	1+(__Package)^080h+0Bh,f
	bcf	status, 5	;RP0=0, select bank0
	bcf	status, 6	;RP1=0, select bank0
	movf	(??_sendPackage+6)+1,w
	bsf	status, 5	;RP0=1, select bank1
	bcf	status, 6	;RP1=0, select bank1
	addwf	1+(__Package)^080h+0Bh,f
	line	117
	
l9470:	
;FingerPrintSensor_R307.c: 117: SendUartValue(_Package.CheckSum, sizeof(_Package.CheckSum));
	movf	0+(__Package)^080h+0Bh,w
	bcf	status, 5	;RP0=0, select bank0
	bcf	status, 6	;RP1=0, select bank0
	movwf	(?_SendUartValue)
	bsf	status, 5	;RP0=1, select bank1
	bcf	status, 6	;RP1=0, select bank1
	movf	1+(__Package)^080h+0Bh,w
	bcf	status, 5	;RP0=0, select bank0
	bcf	status, 6	;RP1=0, select bank0
	movwf	((?_SendUartValue))+1
	clrf	2+((?_SendUartValue))
	clrf	3+((?_SendUartValue))
	movlw	(02h)
	movwf	(??_sendPackage+0)+0
	movf	(??_sendPackage+0)+0,w
	movwf	0+(?_SendUartValue)+04h
	fcall	_SendUartValue
	line	118
	
l3092:	
	return
	opt stack 0
GLOBAL	__end_of_sendPackage
	__end_of_sendPackage:
;; =============== function _sendPackage ends ============

	signat	_sendPackage,16504
	global	_DecToStr
psect	text1842,local,class=CODE,delta=2
global __ptext1842
__ptext1842:

;; *************** function _DecToStr *****************
;; Defined at:
;;		line 106 in file "C:\Users\GauravLT\Desktop\AccessControlBy4Users\AccessControlUsingFingerSense-master\AccessControlUsingFingerSense-master\PIC16F877A_R307\eeprom.c"
;; Parameters:    Size  Location     Type
;;  val             4   20[BANK0 ] unsigned long 
;;  dest            1   24[BANK0 ] PTR unsigned char 
;;		 -> DeleteUserAfterAdminConfirm@buff(10), AddNewUserAfterAdminConfirm@buff_2228(10), 
;;  minDigit        1   25[BANK0 ] unsigned char 
;; Auto vars:     Size  Location     Type
;;  len             1   28[BANK0 ] unsigned char 
;; Return value:  Size  Location     Type
;;		None               void
;; Registers used:
;;		wreg, fsr0l, fsr0h, status,2, status,0, pclath, cstack
;; Tracked objects:
;;		On entry : 0/0
;;		On exit  : 0/0
;;		Unchanged: 0/0
;; Data sizes:     COMMON   BANK0   BANK1   BANK3   BANK2
;;      Params:         0       6       0       0       0
;;      Locals:         0       1       0       0       0
;;      Temps:          0       2       0       0       0
;;      Totals:         0       9       0       0       0
;;Total ram usage:        9 bytes
;; Hardware stack levels used:    1
;; Hardware stack levels required when called:    4
;; This function calls:
;;		_TotDigits
;;		___llmod
;;		___lldiv
;; This function is called by:
;;		_AddNewUserAfterAdminConfirm
;;		_DeleteUserAfterAdminConfirm
;; This function uses a non-reentrant model
;;
psect	text1842
	file	"C:\Users\GauravLT\Desktop\AccessControlBy4Users\AccessControlUsingFingerSense-master\AccessControlUsingFingerSense-master\PIC16F877A_R307\eeprom.c"
	line	106
	global	__size_of_DecToStr
	__size_of_DecToStr	equ	__end_of_DecToStr-_DecToStr
	
_DecToStr:	
	opt	stack 2
; Regs used in _DecToStr: [wreg-fsr0h+status,2+status,0+pclath+cstack]
	line	107
	
l9416:	
;eeprom.c: 107: unsigned char len = TotDigits(val);
	bcf	status, 5	;RP0=0, select bank0
	bcf	status, 6	;RP1=0, select bank0
	movf	(DecToStr@val+3),w
	movwf	(?_TotDigits+3)
	movf	(DecToStr@val+2),w
	movwf	(?_TotDigits+2)
	movf	(DecToStr@val+1),w
	movwf	(?_TotDigits+1)
	movf	(DecToStr@val),w
	movwf	(?_TotDigits)

	fcall	_TotDigits
	bcf	status, 5	;RP0=0, select bank0
	bcf	status, 6	;RP1=0, select bank0
	movwf	(??_DecToStr+0)+0
	movf	(??_DecToStr+0)+0,w
	movwf	(DecToStr@len)
	line	108
	
l9418:	
;eeprom.c: 108: if(len<minDigit) len = minDigit;
	movf	(DecToStr@minDigit),w
	subwf	(DecToStr@len),w
	skipnc
	goto	u7681
	goto	u7680
u7681:
	goto	l9422
u7680:
	
l9420:	
	movf	(DecToStr@minDigit),w
	movwf	(??_DecToStr+0)+0
	movf	(??_DecToStr+0)+0,w
	movwf	(DecToStr@len)
	goto	l9422
	
l4001:	
	line	109
	
l9422:	
;eeprom.c: 109: *(dest+len)=0;
	movf	(DecToStr@len),w
	addwf	(DecToStr@dest),w
	movwf	(??_DecToStr+0)+0
	movf	0+(??_DecToStr+0)+0,w
	movwf	fsr0
	bcf	status, 7	;select IRP bank0
	clrf	indf
	line	110
	
l9424:	
;eeprom.c: 110: len--;
	movlw	low(01h)
	subwf	(DecToStr@len),f
	line	111
;eeprom.c: 111: while(len!=0xFF)
	goto	l9432
	
l4003:	
	line	114
	
l9426:	
;eeprom.c: 112: {
;eeprom.c: 114: *(dest+len) = '0' + val%10;
	movlw	0
	movwf	(?___llmod+3)
	movlw	0
	movwf	(?___llmod+2)
	movlw	0
	movwf	(?___llmod+1)
	movlw	0Ah
	movwf	(?___llmod)

	movf	(DecToStr@val+3),w
	movwf	3+(?___llmod)+04h
	movf	(DecToStr@val+2),w
	movwf	2+(?___llmod)+04h
	movf	(DecToStr@val+1),w
	movwf	1+(?___llmod)+04h
	movf	(DecToStr@val),w
	movwf	0+(?___llmod)+04h

	fcall	___llmod
	bcf	status, 5	;RP0=0, select bank0
	bcf	status, 6	;RP1=0, select bank0
	movf	0+(((0+(?___llmod)))),w
	addlw	030h
	movwf	(??_DecToStr+0)+0
	movf	(DecToStr@len),w
	addwf	(DecToStr@dest),w
	movwf	(??_DecToStr+1)+0
	movf	0+(??_DecToStr+1)+0,w
	movwf	fsr0
	movf	(??_DecToStr+0)+0,w
	bcf	status, 7	;select IRP bank0
	movwf	indf
	line	117
	
l9428:	
;eeprom.c: 117: len--;
	movlw	low(01h)
	subwf	(DecToStr@len),f
	line	118
	
l9430:	
;eeprom.c: 118: val=val/10;
	movlw	0
	movwf	(?___lldiv+3)
	movlw	0
	movwf	(?___lldiv+2)
	movlw	0
	movwf	(?___lldiv+1)
	movlw	0Ah
	movwf	(?___lldiv)

	movf	(DecToStr@val+3),w
	movwf	3+(?___lldiv)+04h
	movf	(DecToStr@val+2),w
	movwf	2+(?___lldiv)+04h
	movf	(DecToStr@val+1),w
	movwf	1+(?___lldiv)+04h
	movf	(DecToStr@val),w
	movwf	0+(?___lldiv)+04h

	fcall	___lldiv
	bcf	status, 5	;RP0=0, select bank0
	bcf	status, 6	;RP1=0, select bank0
	movf	(3+(?___lldiv)),w
	movwf	(DecToStr@val+3)
	movf	(2+(?___lldiv)),w
	movwf	(DecToStr@val+2)
	movf	(1+(?___lldiv)),w
	movwf	(DecToStr@val+1)
	movf	(0+(?___lldiv)),w
	movwf	(DecToStr@val)

	goto	l9432
	line	119
	
l4002:	
	line	111
	
l9432:	
	movf	(DecToStr@len),w
	xorlw	0FFh
	skipz
	goto	u7691
	goto	u7690
u7691:
	goto	l9426
u7690:
	goto	l4005
	
l4004:	
	line	120
	
l4005:	
	return
	opt stack 0
GLOBAL	__end_of_DecToStr
	__end_of_DecToStr:
;; =============== function _DecToStr ends ============

	signat	_DecToStr,12408
	global	_KeyScan
psect	text1843,local,class=CODE,delta=2
global __ptext1843
__ptext1843:

;; *************** function _KeyScan *****************
;; Defined at:
;;		line 45 in file "C:\Users\GauravLT\Desktop\AccessControlBy4Users\AccessControlUsingFingerSense-master\AccessControlUsingFingerSense-master\PIC16F877A_R307\keypd.c"
;; Parameters:    Size  Location     Type
;;		None
;; Auto vars:     Size  Location     Type
;;  keyNo           1    5[BANK0 ] unsigned char 
;; Return value:  Size  Location     Type
;;		None               void
;; Registers used:
;;		wreg, fsr0l, fsr0h, status,2, status,0, pclath, cstack
;; Tracked objects:
;;		On entry : 0/0
;;		On exit  : 0/0
;;		Unchanged: 0/0
;; Data sizes:     COMMON   BANK0   BANK1   BANK3   BANK2
;;      Params:         0       0       0       0       0
;;      Locals:         0       1       0       0       0
;;      Temps:          0       1       0       0       0
;;      Totals:         0       2       0       0       0
;;Total ram usage:        2 bytes
;; Hardware stack levels used:    1
;; Hardware stack levels required when called:    4
;; This function calls:
;;		_PutKey
;; This function is called by:
;;		_AddNewUserAfterAdminConfirm
;;		_DeleteUserAfterAdminConfirm
;;		_menu
;;		_HiSpeedScan0
;;		_AddNewUser
;; This function uses a non-reentrant model
;;
psect	text1843
	file	"C:\Users\GauravLT\Desktop\AccessControlBy4Users\AccessControlUsingFingerSense-master\AccessControlUsingFingerSense-master\PIC16F877A_R307\keypd.c"
	line	45
	global	__size_of_KeyScan
	__size_of_KeyScan	equ	__end_of_KeyScan-_KeyScan
	
_KeyScan:	
	opt	stack 2
; Regs used in _KeyScan: [wreg-fsr0h+status,2+status,0+pclath+cstack]
	line	46
	
l9372:	
;keypd.c: 46: unsigned char keyNo=0;
	bcf	status, 5	;RP0=0, select bank0
	bcf	status, 6	;RP1=0, select bank0
	clrf	(KeyScan@keyNo)
	line	52
;keypd.c: 52: if(RC0 == 1 && RC1 == 0 && RC2 == 0 && RC3 == 0)
	btfss	(56/8),(56)&7
	goto	u7471
	goto	u7470
u7471:
	goto	l2319
u7470:
	
l9374:	
	btfsc	(57/8),(57)&7
	goto	u7481
	goto	u7480
u7481:
	goto	l2319
u7480:
	
l9376:	
	btfsc	(58/8),(58)&7
	goto	u7491
	goto	u7490
u7491:
	goto	l2319
u7490:
	
l9378:	
	btfsc	(59/8),(59)&7
	goto	u7501
	goto	u7500
u7501:
	goto	l2319
u7500:
	goto	l2320
	line	54
	
l9380:	
;keypd.c: 53: {
;keypd.c: 54: while(RC0 ==1);
	goto	l2320
	
l2321:	
	
l2320:	
	btfsc	(56/8),(56)&7
	goto	u7511
	goto	u7510
u7511:
	goto	l2320
u7510:
	goto	l9382
	
l2322:	
	line	55
	
l9382:	
;keypd.c: 55: keyNo = '3';
	movlw	(033h)
	movwf	(??_KeyScan+0)+0
	movf	(??_KeyScan+0)+0,w
	movwf	(KeyScan@keyNo)
	line	56
;keypd.c: 56: }
	goto	l2323
	line	57
	
l2319:	
;keypd.c: 57: else if(RC0 == 0 && RC1 == 1 && RC2 == 0 && RC3 == 0)
	btfsc	(56/8),(56)&7
	goto	u7521
	goto	u7520
u7521:
	goto	l2324
u7520:
	
l9384:	
	btfss	(57/8),(57)&7
	goto	u7531
	goto	u7530
u7531:
	goto	l2324
u7530:
	
l9386:	
	btfsc	(58/8),(58)&7
	goto	u7541
	goto	u7540
u7541:
	goto	l2324
u7540:
	
l9388:	
	btfsc	(59/8),(59)&7
	goto	u7551
	goto	u7550
u7551:
	goto	l2324
u7550:
	goto	l2325
	line	59
	
l9390:	
;keypd.c: 58: {
;keypd.c: 59: while(RC1 ==1);
	goto	l2325
	
l2326:	
	
l2325:	
	btfsc	(57/8),(57)&7
	goto	u7561
	goto	u7560
u7561:
	goto	l2325
u7560:
	goto	l9392
	
l2327:	
	line	60
	
l9392:	
;keypd.c: 60: keyNo = '4';
	movlw	(034h)
	movwf	(??_KeyScan+0)+0
	movf	(??_KeyScan+0)+0,w
	movwf	(KeyScan@keyNo)
	line	61
;keypd.c: 61: }
	goto	l2323
	line	62
	
l2324:	
;keypd.c: 62: else if(RC0 == 0 && RC1 == 0 && RC2 == 1 && RC3 == 0)
	btfsc	(56/8),(56)&7
	goto	u7571
	goto	u7570
u7571:
	goto	l2329
u7570:
	
l9394:	
	btfsc	(57/8),(57)&7
	goto	u7581
	goto	u7580
u7581:
	goto	l2329
u7580:
	
l9396:	
	btfss	(58/8),(58)&7
	goto	u7591
	goto	u7590
u7591:
	goto	l2329
u7590:
	
l9398:	
	btfsc	(59/8),(59)&7
	goto	u7601
	goto	u7600
u7601:
	goto	l2329
u7600:
	goto	l2330
	line	64
	
l9400:	
;keypd.c: 63: {
;keypd.c: 64: while(RC2 ==1);
	goto	l2330
	
l2331:	
	
l2330:	
	btfsc	(58/8),(58)&7
	goto	u7611
	goto	u7610
u7611:
	goto	l2330
u7610:
	goto	l9402
	
l2332:	
	line	65
	
l9402:	
;keypd.c: 65: keyNo = '2';
	movlw	(032h)
	movwf	(??_KeyScan+0)+0
	movf	(??_KeyScan+0)+0,w
	movwf	(KeyScan@keyNo)
	line	66
;keypd.c: 66: }
	goto	l2323
	line	67
	
l2329:	
;keypd.c: 67: else if(RC0 == 0 && RC1 == 0 && RC2 == 0 && RC3 == 1)
	btfsc	(56/8),(56)&7
	goto	u7621
	goto	u7620
u7621:
	goto	l2323
u7620:
	
l9404:	
	btfsc	(57/8),(57)&7
	goto	u7631
	goto	u7630
u7631:
	goto	l2323
u7630:
	
l9406:	
	btfsc	(58/8),(58)&7
	goto	u7641
	goto	u7640
u7641:
	goto	l2323
u7640:
	
l9408:	
	btfss	(59/8),(59)&7
	goto	u7651
	goto	u7650
u7651:
	goto	l2323
u7650:
	goto	l2335
	line	69
	
l9410:	
;keypd.c: 68: {
;keypd.c: 69: while(RC3 ==1);
	goto	l2335
	
l2336:	
	
l2335:	
	btfsc	(59/8),(59)&7
	goto	u7661
	goto	u7660
u7661:
	goto	l2335
u7660:
	goto	l9412
	
l2337:	
	line	70
	
l9412:	
;keypd.c: 70: keyNo = '1';
	movlw	(031h)
	movwf	(??_KeyScan+0)+0
	movf	(??_KeyScan+0)+0,w
	movwf	(KeyScan@keyNo)
	goto	l2323
	line	71
	
l2334:	
	goto	l2323
	line	72
	
l2333:	
	goto	l2323
	
l2328:	
	
l2323:	
;keypd.c: 71: }
;keypd.c: 72: if(keyNo != 0) PutKey(keyNo);
	movf	(KeyScan@keyNo),w
	skipz
	goto	u7670
	goto	l2339
u7670:
	
l9414:	
	movf	(KeyScan@keyNo),w
	fcall	_PutKey
	goto	l2339
	
l2338:	
	line	73
	
l2339:	
	return
	opt stack 0
GLOBAL	__end_of_KeyScan
	__end_of_KeyScan:
;; =============== function _KeyScan ends ============

	signat	_KeyScan,88
	global	_UploadLcdBuffer
psect	text1844,local,class=CODE,delta=2
global __ptext1844
__ptext1844:

;; *************** function _UploadLcdBuffer *****************
;; Defined at:
;;		line 26 in file "C:\Users\GauravLT\Desktop\AccessControlBy4Users\AccessControlUsingFingerSense-master\AccessControlUsingFingerSense-master\PIC16F877A_R307\lcd.c"
;; Parameters:    Size  Location     Type
;;		None
;; Auto vars:     Size  Location     Type
;;  j               1   10[BANK0 ] unsigned char 
;;  i               1    9[BANK0 ] unsigned char 
;; Return value:  Size  Location     Type
;;		None               void
;; Registers used:
;;		wreg, fsr0l, fsr0h, status,2, status,0, pclath, cstack
;; Tracked objects:
;;		On entry : 0/0
;;		On exit  : 0/0
;;		Unchanged: 0/0
;; Data sizes:     COMMON   BANK0   BANK1   BANK3   BANK2
;;      Params:         0       0       0       0       0
;;      Locals:         0       2       0       0       0
;;      Temps:          0       4       0       0       0
;;      Totals:         0       6       0       0       0
;;Total ram usage:        6 bytes
;; Hardware stack levels used:    1
;; Hardware stack levels required when called:    4
;; This function calls:
;;		_SendByte
;; This function is called by:
;;		_LcdPrint
;;		_LcdByte
;; This function uses a non-reentrant model
;;
psect	text1844
	file	"C:\Users\GauravLT\Desktop\AccessControlBy4Users\AccessControlUsingFingerSense-master\AccessControlUsingFingerSense-master\PIC16F877A_R307\lcd.c"
	line	26
	global	__size_of_UploadLcdBuffer
	__size_of_UploadLcdBuffer	equ	__end_of_UploadLcdBuffer-_UploadLcdBuffer
	
_UploadLcdBuffer:	
	opt	stack 1
; Regs used in _UploadLcdBuffer: [wreg-fsr0h+status,2+status,0+pclath+cstack]
	line	29
	
l9348:	
;lcd.c: 27: unsigned char i,j;
;lcd.c: 29: SendByte(Cmd, 0x01);
	bcf	status, 5	;RP0=0, select bank0
	bcf	status, 6	;RP1=0, select bank0
	clrf	(?_SendByte)
	bsf	status,0
	rlf	(?_SendByte),f
	movlw	(0)
	fcall	_SendByte
	line	30
;lcd.c: 30: SendByte(Cmd, 0x80);
	movlw	(080h)
	bcf	status, 5	;RP0=0, select bank0
	bcf	status, 6	;RP1=0, select bank0
	movwf	(??_UploadLcdBuffer+0)+0
	movf	(??_UploadLcdBuffer+0)+0,w
	movwf	(?_SendByte)
	movlw	(0)
	fcall	_SendByte
	line	31
	
l9350:	
;lcd.c: 31: for(i=0; i<2; i++)
	bcf	status, 5	;RP0=0, select bank0
	bcf	status, 6	;RP1=0, select bank0
	clrf	(UploadLcdBuffer@i)
	
l9352:	
	movlw	(02h)
	subwf	(UploadLcdBuffer@i),w
	skipc
	goto	u7421
	goto	u7420
u7421:
	goto	l698
u7420:
	goto	l702
	
l9354:	
	goto	l702
	line	32
	
l698:	
	line	33
;lcd.c: 32: {
;lcd.c: 33: for(j=0; j<16; j++)
	clrf	(UploadLcdBuffer@j)
	
l9356:	
	movlw	(010h)
	subwf	(UploadLcdBuffer@j),w
	skipc
	goto	u7431
	goto	u7430
u7431:
	goto	l9360
u7430:
	goto	l9366
	
l9358:	
	goto	l9366
	line	34
	
l700:	
	line	35
	
l9360:	
;lcd.c: 34: {
;lcd.c: 35: SendByte(Data, LcdBuffer[i][j]);
	movf	(UploadLcdBuffer@i),w
	movwf	(??_UploadLcdBuffer+0)+0
	movlw	04h
u7445:
	clrc
	rlf	(??_UploadLcdBuffer+0)+0,f
	addlw	-1
	skipz
	goto	u7445
	movlw	(_LcdBuffer)&0ffh
	addwf	0+(??_UploadLcdBuffer+0)+0,w
	movwf	(??_UploadLcdBuffer+1)+0
	movf	(UploadLcdBuffer@j),w
	addwf	0+(??_UploadLcdBuffer+1)+0,w
	movwf	(??_UploadLcdBuffer+2)+0
	movf	0+(??_UploadLcdBuffer+2)+0,w
	movwf	fsr0
	bsf	status, 7	;select IRP bank3
	movf	indf,w
	movwf	(??_UploadLcdBuffer+3)+0
	movf	(??_UploadLcdBuffer+3)+0,w
	movwf	(?_SendByte)
	movlw	(01h)
	fcall	_SendByte
	line	33
	
l9362:	
	movlw	(01h)
	bcf	status, 5	;RP0=0, select bank0
	bcf	status, 6	;RP1=0, select bank0
	movwf	(??_UploadLcdBuffer+0)+0
	movf	(??_UploadLcdBuffer+0)+0,w
	addwf	(UploadLcdBuffer@j),f
	
l9364:	
	movlw	(010h)
	subwf	(UploadLcdBuffer@j),w
	skipc
	goto	u7451
	goto	u7450
u7451:
	goto	l9360
u7450:
	goto	l9366
	
l701:	
	line	37
	
l9366:	
;lcd.c: 36: }
;lcd.c: 37: SendByte(Cmd, 0xC0);
	movlw	(0C0h)
	movwf	(??_UploadLcdBuffer+0)+0
	movf	(??_UploadLcdBuffer+0)+0,w
	movwf	(?_SendByte)
	movlw	(0)
	fcall	_SendByte
	line	31
	
l9368:	
	movlw	(01h)
	bcf	status, 5	;RP0=0, select bank0
	bcf	status, 6	;RP1=0, select bank0
	movwf	(??_UploadLcdBuffer+0)+0
	movf	(??_UploadLcdBuffer+0)+0,w
	addwf	(UploadLcdBuffer@i),f
	
l9370:	
	movlw	(02h)
	subwf	(UploadLcdBuffer@i),w
	skipc
	goto	u7461
	goto	u7460
u7461:
	goto	l698
u7460:
	goto	l702
	
l699:	
	line	39
	
l702:	
	return
	opt stack 0
GLOBAL	__end_of_UploadLcdBuffer
	__end_of_UploadLcdBuffer:
;; =============== function _UploadLcdBuffer ends ============

	signat	_UploadLcdBuffer,88
	global	_LcdClear
psect	text1845,local,class=CODE,delta=2
global __ptext1845
__ptext1845:

;; *************** function _LcdClear *****************
;; Defined at:
;;		line 41 in file "C:\Users\GauravLT\Desktop\AccessControlBy4Users\AccessControlUsingFingerSense-master\AccessControlUsingFingerSense-master\PIC16F877A_R307\lcd.c"
;; Parameters:    Size  Location     Type
;;		None
;; Auto vars:     Size  Location     Type
;;		None
;; Return value:  Size  Location     Type
;;		None               void
;; Registers used:
;;		wreg, fsr0l, fsr0h, status,2, status,0, pclath, cstack
;; Tracked objects:
;;		On entry : 0/0
;;		On exit  : 0/0
;;		Unchanged: 0/0
;; Data sizes:     COMMON   BANK0   BANK1   BANK3   BANK2
;;      Params:         0       0       0       0       0
;;      Locals:         0       0       0       0       0
;;      Temps:          0       0       0       0       0
;;      Totals:         0       0       0       0       0
;;Total ram usage:        0 bytes
;; Hardware stack levels used:    1
;; Hardware stack levels required when called:    4
;; This function calls:
;;		_memset1
;;		_SendByte
;; This function is called by:
;;		_LcdInit
;;		_EraseAllUsersAfterAdminConfirm
;;		_ControlAccess
;;		_AlterAdminUser
;;		_AddNewUserAfterAdminConfirm
;;		_DeleteUserAfterAdminConfirm
;;		_menu
;; This function uses a non-reentrant model
;;
psect	text1845
	file	"C:\Users\GauravLT\Desktop\AccessControlBy4Users\AccessControlUsingFingerSense-master\AccessControlUsingFingerSense-master\PIC16F877A_R307\lcd.c"
	line	41
	global	__size_of_LcdClear
	__size_of_LcdClear	equ	__end_of_LcdClear-_LcdClear
	
_LcdClear:	
	opt	stack 2
; Regs used in _LcdClear: [wreg-fsr0h+status,2+status,0+pclath+cstack]
	line	42
	
l9344:	
;lcd.c: 42: memset1((unsigned char *)&LcdBuffer, 0, sizeof(LcdBuffer));
	movlw	(_LcdBuffer&0ffh)
	bcf	status, 5	;RP0=0, select bank0
	bcf	status, 6	;RP1=0, select bank0
	movwf	(?_memset1)
	movlw	(0x3/2)
	movwf	(?_memset1+1)
	clrf	0+(?_memset1)+02h
	movlw	low(020h)
	movwf	0+(?_memset1)+03h
	movlw	high(020h)
	movwf	(0+(?_memset1)+03h)+1
	fcall	_memset1
	line	43
	
l9346:	
;lcd.c: 43: SendByte(Cmd, 0x01);
	bcf	status, 5	;RP0=0, select bank0
	bcf	status, 6	;RP1=0, select bank0
	clrf	(?_SendByte)
	bsf	status,0
	rlf	(?_SendByte),f
	movlw	(0)
	fcall	_SendByte
	line	44
	
l705:	
	return
	opt stack 0
GLOBAL	__end_of_LcdClear
	__end_of_LcdClear:
;; =============== function _LcdClear ends ============

	signat	_LcdClear,88
	global	_TotDigits
psect	text1846,local,class=CODE,delta=2
global __ptext1846
__ptext1846:

;; *************** function _TotDigits *****************
;; Defined at:
;;		line 95 in file "C:\Users\GauravLT\Desktop\AccessControlBy4Users\AccessControlUsingFingerSense-master\AccessControlUsingFingerSense-master\PIC16F877A_R307\eeprom.c"
;; Parameters:    Size  Location     Type
;;  val             4   14[BANK0 ] unsigned long 
;; Auto vars:     Size  Location     Type
;;  result          1   19[BANK0 ] unsigned char 
;; Return value:  Size  Location     Type
;;                  1    wreg      unsigned char 
;; Registers used:
;;		wreg, status,2, status,0, pclath, cstack
;; Tracked objects:
;;		On entry : 0/0
;;		On exit  : 0/0
;;		Unchanged: 0/0
;; Data sizes:     COMMON   BANK0   BANK1   BANK3   BANK2
;;      Params:         0       4       0       0       0
;;      Locals:         0       1       0       0       0
;;      Temps:          0       1       0       0       0
;;      Totals:         0       6       0       0       0
;;Total ram usage:        6 bytes
;; Hardware stack levels used:    1
;; Hardware stack levels required when called:    3
;; This function calls:
;;		___lldiv
;; This function is called by:
;;		_DecToStr
;; This function uses a non-reentrant model
;;
psect	text1846
	file	"C:\Users\GauravLT\Desktop\AccessControlBy4Users\AccessControlUsingFingerSense-master\AccessControlUsingFingerSense-master\PIC16F877A_R307\eeprom.c"
	line	95
	global	__size_of_TotDigits
	__size_of_TotDigits	equ	__end_of_TotDigits-_TotDigits
	
_TotDigits:	
	opt	stack 2
; Regs used in _TotDigits: [wreg+status,2+status,0+pclath+cstack]
	line	96
	
l9332:	
;eeprom.c: 96: unsigned char result = 0;
	bcf	status, 5	;RP0=0, select bank0
	bcf	status, 6	;RP1=0, select bank0
	clrf	(TotDigits@result)
	line	97
;eeprom.c: 97: while(val!=0)
	goto	l9338
	
l3996:	
	line	99
	
l9334:	
;eeprom.c: 98: {
;eeprom.c: 99: val=val/10;
	movlw	0
	movwf	(?___lldiv+3)
	movlw	0
	movwf	(?___lldiv+2)
	movlw	0
	movwf	(?___lldiv+1)
	movlw	0Ah
	movwf	(?___lldiv)

	movf	(TotDigits@val+3),w
	movwf	3+(?___lldiv)+04h
	movf	(TotDigits@val+2),w
	movwf	2+(?___lldiv)+04h
	movf	(TotDigits@val+1),w
	movwf	1+(?___lldiv)+04h
	movf	(TotDigits@val),w
	movwf	0+(?___lldiv)+04h

	fcall	___lldiv
	bcf	status, 5	;RP0=0, select bank0
	bcf	status, 6	;RP1=0, select bank0
	movf	(3+(?___lldiv)),w
	movwf	(TotDigits@val+3)
	movf	(2+(?___lldiv)),w
	movwf	(TotDigits@val+2)
	movf	(1+(?___lldiv)),w
	movwf	(TotDigits@val+1)
	movf	(0+(?___lldiv)),w
	movwf	(TotDigits@val)

	line	100
	
l9336:	
;eeprom.c: 100: result++;
	movlw	(01h)
	movwf	(??_TotDigits+0)+0
	movf	(??_TotDigits+0)+0,w
	addwf	(TotDigits@result),f
	goto	l9338
	line	101
	
l3995:	
	line	97
	
l9338:	
	movf	(TotDigits@val+3),w
	iorwf	(TotDigits@val+2),w
	iorwf	(TotDigits@val+1),w
	iorwf	(TotDigits@val),w
	skipz
	goto	u7411
	goto	u7410
u7411:
	goto	l9334
u7410:
	goto	l9340
	
l3997:	
	line	102
	
l9340:	
;eeprom.c: 101: }
;eeprom.c: 102: return result;
	movf	(TotDigits@result),w
	goto	l3998
	
l9342:	
	line	103
	
l3998:	
	return
	opt stack 0
GLOBAL	__end_of_TotDigits
	__end_of_TotDigits:
;; =============== function _TotDigits ends ============

	signat	_TotDigits,4217
	global	_reserveEElocation
psect	text1847,local,class=CODE,delta=2
global __ptext1847
__ptext1847:

;; *************** function _reserveEElocation *****************
;; Defined at:
;;		line 28 in file "C:\Users\GauravLT\Desktop\AccessControlBy4Users\AccessControlUsingFingerSense-master\AccessControlUsingFingerSense-master\PIC16F877A_R307\eeprom.c"
;; Parameters:    Size  Location     Type
;;  loc             1    wreg     unsigned char 
;; Auto vars:     Size  Location     Type
;;  loc             1    6[BANK0 ] unsigned char 
;; Return value:  Size  Location     Type
;;		None               void
;; Registers used:
;;		wreg, status,2, status,0, pclath, cstack
;; Tracked objects:
;;		On entry : 0/0
;;		On exit  : 0/0
;;		Unchanged: 0/0
;; Data sizes:     COMMON   BANK0   BANK1   BANK3   BANK2
;;      Params:         0       0       0       0       0
;;      Locals:         0       1       0       0       0
;;      Temps:          0       1       0       0       0
;;      Totals:         0       2       0       0       0
;;Total ram usage:        2 bytes
;; Hardware stack levels used:    1
;; Hardware stack levels required when called:    3
;; This function calls:
;;		_ee_write
;;		_ee_read
;; This function is called by:
;;		_AddNewUser
;; This function uses a non-reentrant model
;;
psect	text1847
	file	"C:\Users\GauravLT\Desktop\AccessControlBy4Users\AccessControlUsingFingerSense-master\AccessControlUsingFingerSense-master\PIC16F877A_R307\eeprom.c"
	line	28
	global	__size_of_reserveEElocation
	__size_of_reserveEElocation	equ	__end_of_reserveEElocation-_reserveEElocation
	
_reserveEElocation:	
	opt	stack 2
; Regs used in _reserveEElocation: [wreg+status,2+status,0+pclath+cstack]
;reserveEElocation@loc stored from wreg
	bcf	status, 5	;RP0=0, select bank0
	bcf	status, 6	;RP1=0, select bank0
	movwf	(reserveEElocation@loc)
	line	29
	
l9324:	
;eeprom.c: 29: ee_write(loc, 0x01);
	clrf	(?_ee_write)
	bsf	status,0
	rlf	(?_ee_write),f
	movf	(reserveEElocation@loc),w
	fcall	_ee_write
	line	30
	
l9326:	
;eeprom.c: 30: if(loc != 0 && loc != 1) ee_write(30, ee_read(30)+1);
	bcf	status, 5	;RP0=0, select bank0
	bcf	status, 6	;RP1=0, select bank0
	movf	(reserveEElocation@loc),w
	skipz
	goto	u7390
	goto	l3956
u7390:
	
l9328:	
	movf	(reserveEElocation@loc),w
	xorlw	01h
	skipnz
	goto	u7401
	goto	u7400
u7401:
	goto	l3956
u7400:
	
l9330:	
	movlw	(01Eh)
	fcall	_ee_read
	addlw	01h
	bcf	status, 5	;RP0=0, select bank0
	bcf	status, 6	;RP1=0, select bank0
	movwf	(??_reserveEElocation+0)+0
	movf	(??_reserveEElocation+0)+0,w
	movwf	(?_ee_write)
	movlw	(01Eh)
	fcall	_ee_write
	goto	l3956
	
l3955:	
	line	31
	
l3956:	
	return
	opt stack 0
GLOBAL	__end_of_reserveEElocation
	__end_of_reserveEElocation:
;; =============== function _reserveEElocation ends ============

	signat	_reserveEElocation,4216
	global	_FillUpResponse
psect	text1848,local,class=CODE,delta=2
global __ptext1848
__ptext1848:

;; *************** function _FillUpResponse *****************
;; Defined at:
;;		line 138 in file "C:\Users\GauravLT\Desktop\AccessControlBy4Users\AccessControlUsingFingerSense-master\AccessControlUsingFingerSense-master\PIC16F877A_R307\FingerPrintSensor_R307.c"
;; Parameters:    Size  Location     Type
;;  data            1    wreg     PTR unsigned char 
;;		 -> AddUserC@dataOut(1), AddUserB@dataOut(1), AddUserA@dataOut(1), EraseAllUsers@dataOut(1), 
;;		 -> HiSpeedScan@dataOut(5), MatchTemplate@dataOut(1), LoadFingerTemplate@dataOut(1), GenCharacterFileFromImage@dataOut(1), 
;;		 -> ScanForImage@dataOut(1), VerifyPswd@dataOut(1), DeleteUser@dataOut(1), 
;;  confirmation    1   23[BANK0 ] PTR unsigned char 
;;		 -> AddUserC@confirmationCode(1), AddUserB@confirmationCode(1), AddUserA@confirmationCode(1), EraseAllUsers@confirmationCode(1), 
;;		 -> HiSpeedScan@confirmationCode(1), MatchTemplate@confirmationCode(1), LoadFingerTemplate@confirmationCode(1), GenCharacterFileFromImage@confirmationCode(1), 
;;		 -> ScanForImage@confirmationCode(1), VerifyPswd@confirmationCode(1), DeleteUser@confirmationCode(1), 
;; Auto vars:     Size  Location     Type
;;  data            1   32[BANK0 ] PTR unsigned char 
;;		 -> AddUserC@dataOut(1), AddUserB@dataOut(1), AddUserA@dataOut(1), EraseAllUsers@dataOut(1), 
;;		 -> HiSpeedScan@dataOut(5), MatchTemplate@dataOut(1), LoadFingerTemplate@dataOut(1), GenCharacterFileFromImage@dataOut(1), 
;;		 -> ScanForImage@dataOut(1), VerifyPswd@dataOut(1), DeleteUser@dataOut(1), 
;;  _Response      12   45[BANK0 ] struct Response
;;  wait            4   33[BANK0 ] unsigned long 
;;  checkSumCalc    2   38[BANK0 ] unsigned int 
;;  c               1   44[BANK0 ] unsigned char 
;;  i               1   43[BANK0 ] unsigned char 
;;  chkLength       1   42[BANK0 ] unsigned char 
;;  respPtr         1   41[BANK0 ] PTR unsigned char 
;;		 -> FillUpResponse@_Response(12), 
;;  l               1   40[BANK0 ] unsigned char 
;;  chkSumDigitC    1   37[BANK0 ] unsigned char 
;; Return value:  Size  Location     Type
;;                  1    wreg      unsigned char 
;; Registers used:
;;		wreg, fsr0l, fsr0h, status,2, status,0, pclath, cstack
;; Tracked objects:
;;		On entry : 0/0
;;		On exit  : 0/0
;;		Unchanged: 0/0
;; Data sizes:     COMMON   BANK0   BANK1   BANK3   BANK2
;;      Params:         0       1       0       0       0
;;      Locals:         0      25       0       0       0
;;      Temps:          0       8       0       0       0
;;      Totals:         0      34       0       0       0
;;Total ram usage:       34 bytes
;; Hardware stack levels used:    1
;; Hardware stack levels required when called:    3
;; This function calls:
;;		_memset1
;;		_IsUartBytePending
;;		_GetUartByte
;;		_ToggleEndianFormat
;; This function is called by:
;;		_DeleteUser
;;		_VerifyPswd
;;		_ScanForImage
;;		_GenCharacterFileFromImage
;;		_HiSpeedScan
;;		_EraseAllUsers
;;		_AddUserA
;;		_AddUserB
;;		_AddUserC
;;		_LoadFingerTemplate
;;		_MatchTemplate
;; This function uses a non-reentrant model
;;
psect	text1848
	file	"C:\Users\GauravLT\Desktop\AccessControlBy4Users\AccessControlUsingFingerSense-master\AccessControlUsingFingerSense-master\PIC16F877A_R307\FingerPrintSensor_R307.c"
	line	138
	global	__size_of_FillUpResponse
	__size_of_FillUpResponse	equ	__end_of_FillUpResponse-_FillUpResponse
	
_FillUpResponse:	
	opt	stack 2
; Regs used in _FillUpResponse: [wreg-fsr0h+status,2+status,0+pclath+cstack]
;FillUpResponse@data stored from wreg
	line	140
	bcf	status, 5	;RP0=0, select bank0
	bcf	status, 6	;RP1=0, select bank0
	movwf	(FillUpResponse@data)
	
l9234:	
;FingerPrintSensor_R307.c: 139: struct Response _Response;
;FingerPrintSensor_R307.c: 140: unsigned long wait=0xFFFFF;
	movlw	0
	movwf	(FillUpResponse@wait+3)
	movlw	0Fh
	movwf	(FillUpResponse@wait+2)
	movlw	0FFh
	movwf	(FillUpResponse@wait+1)
	movlw	0FFh
	movwf	(FillUpResponse@wait)

	line	141
	
l9236:	
;FingerPrintSensor_R307.c: 141: unsigned char i=0,c=0,l=0,chkSumDigitCount=0,chkLength=0;
	clrf	(FillUpResponse@i)
	
l9238:	
	clrf	(FillUpResponse@c)
	
l9240:	
	clrf	(FillUpResponse@l)
	
l9242:	
	clrf	(FillUpResponse@chkSumDigitCount)
	
l9244:	
	clrf	(FillUpResponse@chkLength)
	line	142
;FingerPrintSensor_R307.c: 142: unsigned char *respPtr = (unsigned char*)&_Response;
	movlw	(FillUpResponse@_Response)&0ffh
	movwf	(??_FillUpResponse+0)+0
	movf	(??_FillUpResponse+0)+0,w
	movwf	(FillUpResponse@respPtr)
	line	143
	
l9246:	
;FingerPrintSensor_R307.c: 143: unsigned int checkSumCalculated=0;
	clrf	(FillUpResponse@checkSumCalculated)
	clrf	(FillUpResponse@checkSumCalculated+1)
	line	147
	
l9248:	
;FingerPrintSensor_R307.c: 147: memset1(respPtr, 0, sizeof(struct Response));
	movf	(FillUpResponse@respPtr),w
	movwf	(?_memset1)
	movlw	(0x0/2)
	movwf	(?_memset1+1)
	clrf	0+(?_memset1)+02h
	movlw	low(0Ch)
	movwf	0+(?_memset1)+03h
	movlw	high(0Ch)
	movwf	(0+(?_memset1)+03h)+1
	fcall	_memset1
	line	148
;FingerPrintSensor_R307.c: 148: while(wait--)
	goto	l9308
	
l3104:	
	line	150
	
l9250:	
;FingerPrintSensor_R307.c: 149: {
;FingerPrintSensor_R307.c: 150: if(IsUartBytePending())
	fcall	_IsUartBytePending
	xorlw	0
	skipnz
	goto	u7251
	goto	u7250
u7251:
	goto	l9308
u7250:
	line	152
	
l9252:	
;FingerPrintSensor_R307.c: 151: {
;FingerPrintSensor_R307.c: 152: c = GetUartByte();
	fcall	_GetUartByte
	bcf	status, 5	;RP0=0, select bank0
	bcf	status, 6	;RP1=0, select bank0
	movwf	(??_FillUpResponse+0)+0
	movf	(??_FillUpResponse+0)+0,w
	movwf	(FillUpResponse@c)
	line	153
	
l9254:	
;FingerPrintSensor_R307.c: 153: wait=0xFFFFF;
	movlw	0
	movwf	(FillUpResponse@wait+3)
	movlw	0Fh
	movwf	(FillUpResponse@wait+2)
	movlw	0FFh
	movwf	(FillUpResponse@wait+1)
	movlw	0FFh
	movwf	(FillUpResponse@wait)

	line	154
	
l9256:	
;FingerPrintSensor_R307.c: 154: if(chkLength == 0)
	movf	(FillUpResponse@chkLength),f
	skipz
	goto	u7261
	goto	u7260
u7261:
	goto	l9262
u7260:
	line	156
	
l9258:	
;FingerPrintSensor_R307.c: 155: {
;FingerPrintSensor_R307.c: 156: *(respPtr+i) = c;
	movf	(FillUpResponse@c),w
	movwf	(??_FillUpResponse+0)+0
	movf	(FillUpResponse@i),w
	addwf	(FillUpResponse@respPtr),w
	movwf	(??_FillUpResponse+1)+0
	movf	0+(??_FillUpResponse+1)+0,w
	movwf	fsr0
	movf	(??_FillUpResponse+0)+0,w
	bcf	status, 7	;select IRP bank0
	movwf	indf
	line	157
	
l9260:	
;FingerPrintSensor_R307.c: 157: i++;
	movlw	(01h)
	movwf	(??_FillUpResponse+0)+0
	movf	(??_FillUpResponse+0)+0,w
	addwf	(FillUpResponse@i),f
	line	158
;FingerPrintSensor_R307.c: 158: }
	goto	l9280
	line	159
	
l3106:	
	
l9262:	
;FingerPrintSensor_R307.c: 159: else if(chkLength == 1 && l < (_Response._Response0.Length-3))
	movf	(FillUpResponse@chkLength),w
	xorlw	01h
	skipz
	goto	u7271
	goto	u7270
u7271:
	goto	l9272
u7270:
	
l9264:	
	movf	0+(FillUpResponse@_Response)+07h,w
	addlw	low(0FFFDh)
	movwf	(??_FillUpResponse+0)+0
	movf	1+(FillUpResponse@_Response)+07h,w
	skipnc
	addlw	1
	addlw	high(0FFFDh)
	movwf	1+(??_FillUpResponse+0)+0
	movf	(FillUpResponse@l),w
	movwf	(??_FillUpResponse+2)+0
	clrf	(??_FillUpResponse+2)+0+1
	movf	1+(??_FillUpResponse+0)+0,w
	subwf	1+(??_FillUpResponse+2)+0,w
	skipz
	goto	u7285
	movf	0+(??_FillUpResponse+0)+0,w
	subwf	0+(??_FillUpResponse+2)+0,w
u7285:
	skipnc
	goto	u7281
	goto	u7280
u7281:
	goto	l9272
u7280:
	line	161
	
l9266:	
;FingerPrintSensor_R307.c: 160: {
;FingerPrintSensor_R307.c: 161: *(data+l) = c;
	movf	(FillUpResponse@c),w
	movwf	(??_FillUpResponse+0)+0
	movf	(FillUpResponse@l),w
	addwf	(FillUpResponse@data),w
	movwf	(??_FillUpResponse+1)+0
	movf	0+(??_FillUpResponse+1)+0,w
	movwf	fsr0
	movf	(??_FillUpResponse+0)+0,w
	bcf	status, 7	;select IRP bank0
	movwf	indf
	line	163
	
l9268:	
;FingerPrintSensor_R307.c: 163: l++;
	movlw	(01h)
	movwf	(??_FillUpResponse+0)+0
	movf	(??_FillUpResponse+0)+0,w
	addwf	(FillUpResponse@l),f
	line	164
	
l9270:	
;FingerPrintSensor_R307.c: 164: checkSumCalculated += c;
	movf	(FillUpResponse@c),w
	movwf	(??_FillUpResponse+0)+0
	clrf	(??_FillUpResponse+0)+0+1
	movf	0+(??_FillUpResponse+0)+0,w
	addwf	(FillUpResponse@checkSumCalculated),f
	skipnc
	incf	(FillUpResponse@checkSumCalculated+1),f
	movf	1+(??_FillUpResponse+0)+0,w
	addwf	(FillUpResponse@checkSumCalculated+1),f
	line	165
;FingerPrintSensor_R307.c: 165: }
	goto	l9280
	line	166
	
l3108:	
	line	168
	
l9272:	
;FingerPrintSensor_R307.c: 166: else
;FingerPrintSensor_R307.c: 167: {
;FingerPrintSensor_R307.c: 168: *(respPtr + i) = c;
	movf	(FillUpResponse@c),w
	movwf	(??_FillUpResponse+0)+0
	movf	(FillUpResponse@i),w
	addwf	(FillUpResponse@respPtr),w
	movwf	(??_FillUpResponse+1)+0
	movf	0+(??_FillUpResponse+1)+0,w
	movwf	fsr0
	movf	(??_FillUpResponse+0)+0,w
	bcf	status, 7	;select IRP bank0
	movwf	indf
	line	169
	
l9274:	
;FingerPrintSensor_R307.c: 169: i++;
	movlw	(01h)
	movwf	(??_FillUpResponse+0)+0
	movf	(??_FillUpResponse+0)+0,w
	addwf	(FillUpResponse@i),f
	line	170
	
l9276:	
;FingerPrintSensor_R307.c: 170: if(++chkSumDigitCount == 2)
	movlw	(01h)
	movwf	(??_FillUpResponse+0)+0
	movf	(??_FillUpResponse+0)+0,w
	addwf	(FillUpResponse@chkSumDigitCount),f
	movf	((FillUpResponse@chkSumDigitCount)),w
	xorlw	02h
	skipz
	goto	u7291
	goto	u7290
u7291:
	goto	l9280
u7290:
	goto	l9310
	line	172
	
l9278:	
;FingerPrintSensor_R307.c: 171: {
;FingerPrintSensor_R307.c: 172: break;
	goto	l9310
	line	173
	
l3110:	
	goto	l9280
	line	174
	
l3109:	
	goto	l9280
	
l3107:	
	line	175
	
l9280:	
;FingerPrintSensor_R307.c: 173: }
;FingerPrintSensor_R307.c: 174: }
;FingerPrintSensor_R307.c: 175: if(chkLength == 0 && i == sizeof(struct Response0))
	movf	(FillUpResponse@chkLength),f
	skipz
	goto	u7301
	goto	u7300
u7301:
	goto	l9308
u7300:
	
l9282:	
	movf	(FillUpResponse@i),w
	xorlw	0Ah
	skipz
	goto	u7311
	goto	u7310
u7311:
	goto	l9308
u7310:
	line	177
	
l9284:	
;FingerPrintSensor_R307.c: 176: {
;FingerPrintSensor_R307.c: 177: _Response._Response0.Header = (unsigned int)ToggleEndianFormat(_Response._Response0.Header, sizeof(_Response._Response0.Header));
	movf	(FillUpResponse@_Response),w
	movwf	(?_ToggleEndianFormat)
	movf	(FillUpResponse@_Response+1),w
	movwf	((?_ToggleEndianFormat))+1
	clrf	2+((?_ToggleEndianFormat))
	clrf	3+((?_ToggleEndianFormat))
	movlw	(02h)
	movwf	(??_FillUpResponse+0)+0
	movf	(??_FillUpResponse+0)+0,w
	movwf	0+(?_ToggleEndianFormat)+04h
	fcall	_ToggleEndianFormat
	bcf	status, 5	;RP0=0, select bank0
	bcf	status, 6	;RP1=0, select bank0
	movf	1+(((0+(?_ToggleEndianFormat)))),w
	clrf	(FillUpResponse@_Response+1)
	addwf	(FillUpResponse@_Response+1)
	movf	0+(((0+(?_ToggleEndianFormat)))),w
	clrf	(FillUpResponse@_Response)
	addwf	(FillUpResponse@_Response)

	line	178
	
l9286:	
;FingerPrintSensor_R307.c: 178: _Response._Response0.Address = (unsigned long)ToggleEndianFormat(_Response._Response0.Address, sizeof(_Response._Response0.Address));
	movlw	(02h)
	addlw	FillUpResponse@_Response&0ffh
	movwf	fsr0
	bcf	status, 7	;select IRP bank0
	movf	indf,w
	movwf	(?_ToggleEndianFormat)
	incf	fsr0,f
	movf	indf,w
	movwf	(?_ToggleEndianFormat+1)
	incf	fsr0,f
	movf	indf,w
	movwf	(?_ToggleEndianFormat+2)
	incf	fsr0,f
	movf	indf,w
	movwf	(?_ToggleEndianFormat+3)
	movlw	(04h)
	movwf	(??_FillUpResponse+0)+0
	movf	(??_FillUpResponse+0)+0,w
	movwf	0+(?_ToggleEndianFormat)+04h
	fcall	_ToggleEndianFormat
	bcf	status, 5	;RP0=0, select bank0
	bcf	status, 6	;RP1=0, select bank0
	movf	(3+(?_ToggleEndianFormat)),w
	movwf	3+(FillUpResponse@_Response)+02h
	movf	(2+(?_ToggleEndianFormat)),w
	movwf	2+(FillUpResponse@_Response)+02h
	movf	(1+(?_ToggleEndianFormat)),w
	movwf	1+(FillUpResponse@_Response)+02h
	movf	(0+(?_ToggleEndianFormat)),w
	movwf	0+(FillUpResponse@_Response)+02h

	line	179
	
l9288:	
;FingerPrintSensor_R307.c: 179: _Response._Response0.Identifier = (unsigned char)ToggleEndianFormat(_Response._Response0.Identifier, sizeof(_Response._Response0.Identifier));
	movf	0+(FillUpResponse@_Response)+06h,w
	movwf	(??_FillUpResponse+0)+0
	clrf	((??_FillUpResponse+0)+0+1)
	clrf	((??_FillUpResponse+0)+0+2)
	clrf	((??_FillUpResponse+0)+0+3)
	movf	3+(??_FillUpResponse+0)+0,w
	movwf	(?_ToggleEndianFormat+3)
	movf	2+(??_FillUpResponse+0)+0,w
	movwf	(?_ToggleEndianFormat+2)
	movf	1+(??_FillUpResponse+0)+0,w
	movwf	(?_ToggleEndianFormat+1)
	movf	0+(??_FillUpResponse+0)+0,w
	movwf	(?_ToggleEndianFormat)

	clrf	0+(?_ToggleEndianFormat)+04h
	bsf	status,0
	rlf	0+(?_ToggleEndianFormat)+04h,f
	fcall	_ToggleEndianFormat
	bcf	status, 5	;RP0=0, select bank0
	bcf	status, 6	;RP1=0, select bank0
	movf	0+(((0+(?_ToggleEndianFormat)))),w
	movwf	(??_FillUpResponse+4)+0
	movf	(??_FillUpResponse+4)+0,w
	movwf	0+(FillUpResponse@_Response)+06h
	line	180
	
l9290:	
;FingerPrintSensor_R307.c: 180: _Response._Response0.Length = (unsigned int)ToggleEndianFormat(_Response._Response0.Length, sizeof(_Response._Response0.Length));
	movf	0+(FillUpResponse@_Response)+07h,w
	movwf	(?_ToggleEndianFormat)
	movf	1+(FillUpResponse@_Response)+07h,w
	movwf	((?_ToggleEndianFormat))+1
	clrf	2+((?_ToggleEndianFormat))
	clrf	3+((?_ToggleEndianFormat))
	movlw	(02h)
	movwf	(??_FillUpResponse+0)+0
	movf	(??_FillUpResponse+0)+0,w
	movwf	0+(?_ToggleEndianFormat)+04h
	fcall	_ToggleEndianFormat
	bcf	status, 5	;RP0=0, select bank0
	bcf	status, 6	;RP1=0, select bank0
	movf	1+(((0+(?_ToggleEndianFormat)))),w
	clrf	1+(FillUpResponse@_Response)+07h
	addwf	1+(FillUpResponse@_Response)+07h
	movf	0+(((0+(?_ToggleEndianFormat)))),w
	clrf	0+(FillUpResponse@_Response)+07h
	addwf	0+(FillUpResponse@_Response)+07h

	line	181
	
l9292:	
;FingerPrintSensor_R307.c: 181: _Response._Response0.ConfirmationCode = (unsigned char)ToggleEndianFormat(_Response._Response0.ConfirmationCode, sizeof(_Response._Response0.ConfirmationCode));
	movf	0+(FillUpResponse@_Response)+09h,w
	movwf	(??_FillUpResponse+0)+0
	clrf	((??_FillUpResponse+0)+0+1)
	clrf	((??_FillUpResponse+0)+0+2)
	clrf	((??_FillUpResponse+0)+0+3)
	movf	3+(??_FillUpResponse+0)+0,w
	movwf	(?_ToggleEndianFormat+3)
	movf	2+(??_FillUpResponse+0)+0,w
	movwf	(?_ToggleEndianFormat+2)
	movf	1+(??_FillUpResponse+0)+0,w
	movwf	(?_ToggleEndianFormat+1)
	movf	0+(??_FillUpResponse+0)+0,w
	movwf	(?_ToggleEndianFormat)

	clrf	0+(?_ToggleEndianFormat)+04h
	bsf	status,0
	rlf	0+(?_ToggleEndianFormat)+04h,f
	fcall	_ToggleEndianFormat
	bcf	status, 5	;RP0=0, select bank0
	bcf	status, 6	;RP1=0, select bank0
	movf	0+(((0+(?_ToggleEndianFormat)))),w
	movwf	(??_FillUpResponse+4)+0
	movf	(??_FillUpResponse+4)+0,w
	movwf	0+(FillUpResponse@_Response)+09h
	line	188
	
l9294:	
;FingerPrintSensor_R307.c: 188: chkLength = 1;
	clrf	(FillUpResponse@chkLength)
	bsf	status,0
	rlf	(FillUpResponse@chkLength),f
	line	189
	
l9296:	
;FingerPrintSensor_R307.c: 189: if(_Response._Response0.Header != 0xEF01 || _Response._Response0.Address != DefModuleAddress || _Response._Response0.Identifier != pAck)
	movlw	high(0EF01h)
	xorwf	(FillUpResponse@_Response+1),w
	skipz
	goto	u7325
	movlw	low(0EF01h)
	xorwf	(FillUpResponse@_Response),w
u7325:

	skipz
	goto	u7321
	goto	u7320
u7321:
	goto	l9302
u7320:
	
l9298:	
	bsf	status, 5	;RP0=1, select bank1
	bcf	status, 6	;RP1=0, select bank1
	movf	(_DefModuleAddress+3)^080h,w
	bcf	status, 5	;RP0=0, select bank0
	bcf	status, 6	;RP1=0, select bank0
	xorwf	3+(FillUpResponse@_Response)+02h,w
	skipz
	goto	u7335
	bsf	status, 5	;RP0=1, select bank1
	bcf	status, 6	;RP1=0, select bank1
	movf	(_DefModuleAddress+2)^080h,w
	bcf	status, 5	;RP0=0, select bank0
	bcf	status, 6	;RP1=0, select bank0
	xorwf	2+(FillUpResponse@_Response)+02h,w
	skipz
	goto	u7335
	bsf	status, 5	;RP0=1, select bank1
	bcf	status, 6	;RP1=0, select bank1
	movf	(_DefModuleAddress+1)^080h,w
	bcf	status, 5	;RP0=0, select bank0
	bcf	status, 6	;RP1=0, select bank0
	xorwf	1+(FillUpResponse@_Response)+02h,w
	skipz
	goto	u7335
	bsf	status, 5	;RP0=1, select bank1
	bcf	status, 6	;RP1=0, select bank1
	movf	(_DefModuleAddress)^080h,w
	bcf	status, 5	;RP0=0, select bank0
	bcf	status, 6	;RP1=0, select bank0
	xorwf	0+(FillUpResponse@_Response)+02h,w
u7335:
	skipz
	goto	u7331
	goto	u7330
u7331:
	goto	l9302
u7330:
	
l9300:	
	movf	0+(FillUpResponse@_Response)+06h,w
	xorlw	07h
	skipnz
	goto	u7341
	goto	u7340
u7341:
	goto	l9306
u7340:
	goto	l9302
	
l3115:	
	line	190
	
l9302:	
;FingerPrintSensor_R307.c: 190: return 0;
	movlw	(0)
	goto	l3116
	
l9304:	
	goto	l3116
	
l3113:	
	line	194
	
l9306:	
;FingerPrintSensor_R307.c: 191: checkSumCalculated += (unsigned char)_Response._Response0.Identifier +
;FingerPrintSensor_R307.c: 192: (unsigned char)(_Response._Response0.Length >> 8) +
;FingerPrintSensor_R307.c: 193: (unsigned char)(_Response._Response0.Length & 0xFF) +
;FingerPrintSensor_R307.c: 194: (unsigned char)(_Response._Response0.ConfirmationCode);
	movlw	(07h)
	addlw	FillUpResponse@_Response&0ffh
	movwf	fsr0
	bcf	status, 7	;select IRP bank0
	movf	indf,w
	movwf	(??_FillUpResponse+0)+0+0
	incf	fsr0,f
	movf	indf,w
	movwf	(??_FillUpResponse+0)+0+1
	movlw	08h
u7355:
	clrc
	rrf	(??_FillUpResponse+0)+1,f
	rrf	(??_FillUpResponse+0)+0,f
	addlw	-1
	skipz
	goto	u7355
	movf	0+(FillUpResponse@_Response)+06h,w
	addwf	0+(??_FillUpResponse+0)+0,w
	movwf	(??_FillUpResponse+2)+0
	clrf	(??_FillUpResponse+2)+0+1
	rlf	1+(??_FillUpResponse+2)+0,f
	
	movf	0+(FillUpResponse@_Response)+07h,w
	addwf	0+(??_FillUpResponse+2)+0,w
	movwf	(??_FillUpResponse+4)+0
	movlw	0
	skipnc
	movlw	1
	addwf	1+(??_FillUpResponse+2)+0,w
	movwf	1+(??_FillUpResponse+4)+0
	movf	0+(FillUpResponse@_Response)+09h,w
	addwf	0+(??_FillUpResponse+4)+0,w
	movwf	(??_FillUpResponse+6)+0
	movlw	0
	skipnc
	movlw	1
	addwf	1+(??_FillUpResponse+4)+0,w
	movwf	1+(??_FillUpResponse+6)+0
	movf	0+(??_FillUpResponse+6)+0,w
	addwf	(FillUpResponse@checkSumCalculated),f
	skipnc
	incf	(FillUpResponse@checkSumCalculated+1),f
	movf	1+(??_FillUpResponse+6)+0,w
	addwf	(FillUpResponse@checkSumCalculated+1),f
	goto	l9308
	line	195
	
l3112:	
	goto	l9308
	line	196
	
l3105:	
	goto	l9308
	line	197
	
l3103:	
	line	148
	
l9308:	
	movlw	01h
	bcf	status, 5	;RP0=0, select bank0
	bcf	status, 6	;RP1=0, select bank0
	movwf	((??_FillUpResponse+0)+0)
	movlw	0
	movwf	((??_FillUpResponse+0)+0+1)
	movlw	0
	movwf	((??_FillUpResponse+0)+0+2)
	movlw	0
	movwf	((??_FillUpResponse+0)+0+3)
	movf	0+(??_FillUpResponse+0)+0,w
	subwf	(FillUpResponse@wait),f
	movf	1+(??_FillUpResponse+0)+0,w
	skipc
	incfsz	1+(??_FillUpResponse+0)+0,w
	goto	u7365
	goto	u7366
u7365:
	subwf	(FillUpResponse@wait+1),f
u7366:
	movf	2+(??_FillUpResponse+0)+0,w
	skipc
	incfsz	2+(??_FillUpResponse+0)+0,w
	goto	u7367
	goto	u7368
u7367:
	subwf	(FillUpResponse@wait+2),f
u7368:
	movf	3+(??_FillUpResponse+0)+0,w
	skipc
	incfsz	3+(??_FillUpResponse+0)+0,w
	goto	u7369
	goto	u7360
u7369:
	subwf	(FillUpResponse@wait+3),f
u7360:

	movlw	0FFh
	xorwf	((FillUpResponse@wait+3)),w
	skipz
	goto	u7375
	movlw	0FFh
	xorwf	((FillUpResponse@wait+2)),w
	skipz
	goto	u7375
	movlw	0FFh
	xorwf	((FillUpResponse@wait+1)),w
	skipz
	goto	u7375
	movlw	0FFh
	xorwf	((FillUpResponse@wait)),w
u7375:
	skipz
	goto	u7371
	goto	u7370
u7371:
	goto	l9250
u7370:
	goto	l9310
	
l3111:	
	line	198
	
l9310:	
;FingerPrintSensor_R307.c: 195: }
;FingerPrintSensor_R307.c: 196: }
;FingerPrintSensor_R307.c: 197: }
;FingerPrintSensor_R307.c: 198: _Response.CheckSum0= (unsigned int)ToggleEndianFormat(_Response.CheckSum0, sizeof(_Response.CheckSum0));
	movf	0+(FillUpResponse@_Response)+0Ah,w
	movwf	(?_ToggleEndianFormat)
	movf	1+(FillUpResponse@_Response)+0Ah,w
	movwf	((?_ToggleEndianFormat))+1
	clrf	2+((?_ToggleEndianFormat))
	clrf	3+((?_ToggleEndianFormat))
	movlw	(02h)
	movwf	(??_FillUpResponse+0)+0
	movf	(??_FillUpResponse+0)+0,w
	movwf	0+(?_ToggleEndianFormat)+04h
	fcall	_ToggleEndianFormat
	bcf	status, 5	;RP0=0, select bank0
	bcf	status, 6	;RP1=0, select bank0
	movf	1+(((0+(?_ToggleEndianFormat)))),w
	clrf	1+(FillUpResponse@_Response)+0Ah
	addwf	1+(FillUpResponse@_Response)+0Ah
	movf	0+(((0+(?_ToggleEndianFormat)))),w
	clrf	0+(FillUpResponse@_Response)+0Ah
	addwf	0+(FillUpResponse@_Response)+0Ah

	line	199
	
l9312:	
;FingerPrintSensor_R307.c: 199: if(_Response.CheckSum0 == checkSumCalculated)
	movf	(FillUpResponse@checkSumCalculated+1),w
	xorwf	1+(FillUpResponse@_Response)+0Ah,w
	skipz
	goto	u7385
	movf	(FillUpResponse@checkSumCalculated),w
	xorwf	0+(FillUpResponse@_Response)+0Ah,w
u7385:

	skipz
	goto	u7381
	goto	u7380
u7381:
	goto	l9320
u7380:
	line	201
	
l9314:	
;FingerPrintSensor_R307.c: 200: {
;FingerPrintSensor_R307.c: 201: *confirmationCode = _Response._Response0.ConfirmationCode;
	movf	0+(FillUpResponse@_Response)+09h,w
	movwf	(??_FillUpResponse+0)+0
	movf	(FillUpResponse@confirmationCode),w
	movwf	fsr0
	movf	(??_FillUpResponse+0)+0,w
	bcf	status, 7	;select IRP bank0
	movwf	indf
	line	202
	
l9316:	
;FingerPrintSensor_R307.c: 202: return 1;
	movlw	(01h)
	goto	l3116
	
l9318:	
	goto	l3116
	line	203
	
l3117:	
	line	204
	
l9320:	
;FingerPrintSensor_R307.c: 203: }
;FingerPrintSensor_R307.c: 204: return 0;
	movlw	(0)
	goto	l3116
	
l9322:	
	line	205
	
l3116:	
	return
	opt stack 0
GLOBAL	__end_of_FillUpResponse
	__end_of_FillUpResponse:
;; =============== function _FillUpResponse ends ============

	signat	_FillUpResponse,8313
	global	_SendUartValue
psect	text1849,local,class=CODE,delta=2
global __ptext1849
__ptext1849:

;; *************** function _SendUartValue *****************
;; Defined at:
;;		line 49 in file "C:\Users\GauravLT\Desktop\AccessControlBy4Users\AccessControlUsingFingerSense-master\AccessControlUsingFingerSense-master\PIC16F877A_R307\FingerPrintSensor_R307.c"
;; Parameters:    Size  Location     Type
;;  value           4    1[BANK0 ] unsigned long 
;;  size            1    5[BANK0 ] unsigned char 
;; Auto vars:     Size  Location     Type
;;		None
;; Return value:  Size  Location     Type
;;		None               void
;; Registers used:
;;		wreg, status,2, status,0, pclath, cstack
;; Tracked objects:
;;		On entry : 0/0
;;		On exit  : 0/0
;;		Unchanged: 0/0
;; Data sizes:     COMMON   BANK0   BANK1   BANK3   BANK2
;;      Params:         0       5       0       0       0
;;      Locals:         0       0       0       0       0
;;      Temps:          0       5       0       0       0
;;      Totals:         0      10       0       0       0
;;Total ram usage:       10 bytes
;; Hardware stack levels used:    1
;; Hardware stack levels required when called:    3
;; This function calls:
;;		_SendUartByte
;; This function is called by:
;;		_sendPackage
;; This function uses a non-reentrant model
;;
psect	text1849
	file	"C:\Users\GauravLT\Desktop\AccessControlBy4Users\AccessControlUsingFingerSense-master\AccessControlUsingFingerSense-master\PIC16F877A_R307\FingerPrintSensor_R307.c"
	line	49
	global	__size_of_SendUartValue
	__size_of_SendUartValue	equ	__end_of_SendUartValue-_SendUartValue
	
_SendUartValue:	
	opt	stack 1
; Regs used in _SendUartValue: [wreg+status,2+status,0+pclath+cstack]
	line	50
	
l9218:	
;FingerPrintSensor_R307.c: 50: for(;size>0;size--)
	bcf	status, 5	;RP0=0, select bank0
	bcf	status, 6	;RP1=0, select bank0
	movf	(SendUartValue@size),f
	skipz
	goto	u7191
	goto	u7190
u7191:
	goto	l9222
u7190:
	goto	l3064
	
l9220:	
	goto	l3064
	line	51
	
l3059:	
	line	52
	
l9222:	
;FingerPrintSensor_R307.c: 51: {
;FingerPrintSensor_R307.c: 52: if(size!=1) SendUartByte((unsigned char)(value >> 8*(size-1)));
	movf	(SendUartValue@size),w
	xorlw	01h
	skipnz
	goto	u7201
	goto	u7200
u7201:
	goto	l9226
u7200:
	
l9224:	
	movf	(SendUartValue@value),w
	movwf	(??_SendUartValue+0)+0
	movf	(SendUartValue@value+1),w
	movwf	((??_SendUartValue+0)+0+1)
	movf	(SendUartValue@value+2),w
	movwf	((??_SendUartValue+0)+0+2)
	movf	(SendUartValue@value+3),w
	movwf	((??_SendUartValue+0)+0+3)
	movf	(SendUartValue@size),w
	movwf	(??_SendUartValue+4)+0
	movlw	(03h)-1
u7215:
	clrc
	rlf	(??_SendUartValue+4)+0,f
	addlw	-1
	skipz
	goto	u7215
	clrc
	rlf	(??_SendUartValue+4)+0,w
	addlw	-8
	addlw	1
	goto	u7220
u7225:
	clrc
	rrf	(??_SendUartValue+0)+3,f
	rrf	(??_SendUartValue+0)+2,f
	rrf	(??_SendUartValue+0)+1,f
	rrf	(??_SendUartValue+0)+0,f
u7220:
	addlw	-1
	skipz
	goto	u7225
	movf	0+(??_SendUartValue+0)+0,w
	fcall	_SendUartByte
	goto	l9230
	line	53
	
l3061:	
	
l9226:	
;FingerPrintSensor_R307.c: 53: else if(size==1) SendUartByte((unsigned char)(value & 0xFF));
	bcf	status, 5	;RP0=0, select bank0
	bcf	status, 6	;RP1=0, select bank0
	movf	(SendUartValue@size),w
	xorlw	01h
	skipz
	goto	u7231
	goto	u7230
u7231:
	goto	l9230
u7230:
	
l9228:	
	movf	(SendUartValue@value),w
	fcall	_SendUartByte
	goto	l9230
	
l3063:	
	goto	l9230
	line	54
	
l3062:	
	line	50
	
l9230:	
	movlw	low(01h)
	bcf	status, 5	;RP0=0, select bank0
	bcf	status, 6	;RP1=0, select bank0
	subwf	(SendUartValue@size),f
	
l9232:	
	movf	(SendUartValue@size),f
	skipz
	goto	u7241
	goto	u7240
u7241:
	goto	l9222
u7240:
	goto	l3064
	
l3060:	
	line	55
	
l3064:	
	return
	opt stack 0
GLOBAL	__end_of_SendUartValue
	__end_of_SendUartValue:
;; =============== function _SendUartValue ends ============

	signat	_SendUartValue,8312
	global	_releaseEElocation
psect	text1850,local,class=CODE,delta=2
global __ptext1850
__ptext1850:

;; *************** function _releaseEElocation *****************
;; Defined at:
;;		line 33 in file "C:\Users\GauravLT\Desktop\AccessControlBy4Users\AccessControlUsingFingerSense-master\AccessControlUsingFingerSense-master\PIC16F877A_R307\eeprom.c"
;; Parameters:    Size  Location     Type
;;  loc             1    wreg     unsigned char 
;; Auto vars:     Size  Location     Type
;;  loc             1    6[BANK0 ] unsigned char 
;; Return value:  Size  Location     Type
;;		None               void
;; Registers used:
;;		wreg, status,2, status,0, pclath, cstack
;; Tracked objects:
;;		On entry : 0/0
;;		On exit  : 0/0
;;		Unchanged: 0/0
;; Data sizes:     COMMON   BANK0   BANK1   BANK3   BANK2
;;      Params:         0       0       0       0       0
;;      Locals:         0       1       0       0       0
;;      Temps:          0       1       0       0       0
;;      Totals:         0       2       0       0       0
;;Total ram usage:        2 bytes
;; Hardware stack levels used:    1
;; Hardware stack levels required when called:    3
;; This function calls:
;;		_ee_write
;;		_ee_read
;; This function is called by:
;;		_DeleteUserAfterAdminConfirm
;; This function uses a non-reentrant model
;;
psect	text1850
	file	"C:\Users\GauravLT\Desktop\AccessControlBy4Users\AccessControlUsingFingerSense-master\AccessControlUsingFingerSense-master\PIC16F877A_R307\eeprom.c"
	line	33
	global	__size_of_releaseEElocation
	__size_of_releaseEElocation	equ	__end_of_releaseEElocation-_releaseEElocation
	
_releaseEElocation:	
	opt	stack 3
; Regs used in _releaseEElocation: [wreg+status,2+status,0+pclath+cstack]
;releaseEElocation@loc stored from wreg
	bcf	status, 5	;RP0=0, select bank0
	bcf	status, 6	;RP1=0, select bank0
	movwf	(releaseEElocation@loc)
	line	34
	
l9210:	
;eeprom.c: 34: ee_write(loc, 0xFF);
	movlw	(0FFh)
	movwf	(??_releaseEElocation+0)+0
	movf	(??_releaseEElocation+0)+0,w
	movwf	(?_ee_write)
	movf	(releaseEElocation@loc),w
	fcall	_ee_write
	line	35
	
l9212:	
;eeprom.c: 35: if(loc != 0 && loc != 1) ee_write(30, ee_read(30)-1);
	bcf	status, 5	;RP0=0, select bank0
	bcf	status, 6	;RP1=0, select bank0
	movf	(releaseEElocation@loc),w
	skipz
	goto	u7170
	goto	l3960
u7170:
	
l9214:	
	movf	(releaseEElocation@loc),w
	xorlw	01h
	skipnz
	goto	u7181
	goto	u7180
u7181:
	goto	l3960
u7180:
	
l9216:	
	movlw	(01Eh)
	fcall	_ee_read
	addlw	0FFh
	bcf	status, 5	;RP0=0, select bank0
	bcf	status, 6	;RP1=0, select bank0
	movwf	(??_releaseEElocation+0)+0
	movf	(??_releaseEElocation+0)+0,w
	movwf	(?_ee_write)
	movlw	(01Eh)
	fcall	_ee_write
	goto	l3960
	
l3959:	
	line	36
	
l3960:	
	return
	opt stack 0
GLOBAL	__end_of_releaseEElocation
	__end_of_releaseEElocation:
;; =============== function _releaseEElocation ends ============

	signat	_releaseEElocation,4216
	global	_PutKey
psect	text1851,local,class=CODE,delta=2
global __ptext1851
__ptext1851:

;; *************** function _PutKey *****************
;; Defined at:
;;		line 24 in file "C:\Users\GauravLT\Desktop\AccessControlBy4Users\AccessControlUsingFingerSense-master\AccessControlUsingFingerSense-master\PIC16F877A_R307\keypd.c"
;; Parameters:    Size  Location     Type
;;  key             1    wreg     unsigned char 
;; Auto vars:     Size  Location     Type
;;  key             1    3[BANK0 ] unsigned char 
;; Return value:  Size  Location     Type
;;		None               void
;; Registers used:
;;		wreg, fsr0l, fsr0h, status,2, status,0, pclath, cstack
;; Tracked objects:
;;		On entry : 0/0
;;		On exit  : 0/0
;;		Unchanged: 0/0
;; Data sizes:     COMMON   BANK0   BANK1   BANK3   BANK2
;;      Params:         0       0       0       0       0
;;      Locals:         0       1       0       0       0
;;      Temps:          0       1       0       0       0
;;      Totals:         0       2       0       0       0
;;Total ram usage:        2 bytes
;; Hardware stack levels used:    1
;; Hardware stack levels required when called:    3
;; This function calls:
;;		_LcdDelay
;; This function is called by:
;;		_AddNewUserAfterAdminConfirm
;;		_DeleteUserAfterAdminConfirm
;;		_KeyScan
;; This function uses a non-reentrant model
;;
psect	text1851
	file	"C:\Users\GauravLT\Desktop\AccessControlBy4Users\AccessControlUsingFingerSense-master\AccessControlUsingFingerSense-master\PIC16F877A_R307\keypd.c"
	line	24
	global	__size_of_PutKey
	__size_of_PutKey	equ	__end_of_PutKey-_PutKey
	
_PutKey:	
	opt	stack 2
; Regs used in _PutKey: [wreg-fsr0h+status,2+status,0+pclath+cstack]
;PutKey@key stored from wreg
	bcf	status, 5	;RP0=0, select bank0
	bcf	status, 6	;RP1=0, select bank0
	movwf	(PutKey@key)
	line	25
	
l9200:	
;keypd.c: 25: KeypdBuffer[IxPtr] = key;
	movf	(PutKey@key),w
	movwf	(??_PutKey+0)+0
	movf	(_IxPtr),w
	addlw	_KeypdBuffer&0ffh
	movwf	fsr0
	movf	(??_PutKey+0)+0,w
	bsf	status, 7	;select IRP bank3
	movwf	indf
	line	26
	
l9202:	
;keypd.c: 26: if(++IxPtr == 20)
	movlw	(01h)
	movwf	(??_PutKey+0)+0
	movf	(??_PutKey+0)+0,w
	addwf	(_IxPtr),f
	movf	((_IxPtr)),w
	xorlw	014h
	skipz
	goto	u7161
	goto	u7160
u7161:
	goto	l2311
u7160:
	line	27
	
l9204:	
;keypd.c: 27: IxPtr = 0;
	clrf	(_IxPtr)
	
l2311:	
	line	28
;keypd.c: 28: RB5=1;
	bsf	(53/8),(53)&7
	line	29
	
l9206:	
;keypd.c: 29: LcdDelay(800);
	movlw	low(0320h)
	movwf	(?_LcdDelay)
	movlw	high(0320h)
	movwf	((?_LcdDelay))+1
	fcall	_LcdDelay
	line	30
	
l9208:	
;keypd.c: 30: RB5=0;
	bcf	status, 5	;RP0=0, select bank0
	bcf	status, 6	;RP1=0, select bank0
	bcf	(53/8),(53)&7
	line	33
	
l2312:	
	return
	opt stack 0
GLOBAL	__end_of_PutKey
	__end_of_PutKey:
;; =============== function _PutKey ends ============

	signat	_PutKey,4216
	global	_ee_eraseNPos
psect	text1852,local,class=CODE,delta=2
global __ptext1852
__ptext1852:

;; *************** function _ee_eraseNPos *****************
;; Defined at:
;;		line 7 in file "C:\Users\GauravLT\Desktop\AccessControlBy4Users\AccessControlUsingFingerSense-master\AccessControlUsingFingerSense-master\PIC16F877A_R307\eeprom.c"
;; Parameters:    Size  Location     Type
;;  n               1    wreg     unsigned char 
;; Auto vars:     Size  Location     Type
;;  n               1    6[BANK0 ] unsigned char 
;;  i               1    7[BANK0 ] unsigned char 
;; Return value:  Size  Location     Type
;;		None               void
;; Registers used:
;;		wreg, status,2, status,0, pclath, cstack
;; Tracked objects:
;;		On entry : 0/0
;;		On exit  : 0/0
;;		Unchanged: 0/0
;; Data sizes:     COMMON   BANK0   BANK1   BANK3   BANK2
;;      Params:         0       0       0       0       0
;;      Locals:         0       2       0       0       0
;;      Temps:          0       1       0       0       0
;;      Totals:         0       3       0       0       0
;;Total ram usage:        3 bytes
;; Hardware stack levels used:    1
;; Hardware stack levels required when called:    3
;; This function calls:
;;		_ee_write
;; This function is called by:
;;		_EraseAllUsersAfterAdminConfirm
;; This function uses a non-reentrant model
;;
psect	text1852
	file	"C:\Users\GauravLT\Desktop\AccessControlBy4Users\AccessControlUsingFingerSense-master\AccessControlUsingFingerSense-master\PIC16F877A_R307\eeprom.c"
	line	7
	global	__size_of_ee_eraseNPos
	__size_of_ee_eraseNPos	equ	__end_of_ee_eraseNPos-_ee_eraseNPos
	
_ee_eraseNPos:	
	opt	stack 3
; Regs used in _ee_eraseNPos: [wreg+status,2+status,0+pclath+cstack]
;ee_eraseNPos@n stored from wreg
	bcf	status, 5	;RP0=0, select bank0
	bcf	status, 6	;RP1=0, select bank0
	movwf	(ee_eraseNPos@n)
	line	8
	
l9192:	
;eeprom.c: 8: unsigned char i=0;
	clrf	(ee_eraseNPos@i)
	line	9
;eeprom.c: 9: for(i=0;i<n;i++)
	clrf	(ee_eraseNPos@i)
	goto	l9198
	line	10
	
l3942:	
	line	11
	
l9194:	
;eeprom.c: 10: {
;eeprom.c: 11: ee_write(i, 0xFF);
	movlw	(0FFh)
	movwf	(??_ee_eraseNPos+0)+0
	movf	(??_ee_eraseNPos+0)+0,w
	movwf	(?_ee_write)
	movf	(ee_eraseNPos@i),w
	fcall	_ee_write
	line	9
	
l9196:	
	movlw	(01h)
	bcf	status, 5	;RP0=0, select bank0
	bcf	status, 6	;RP1=0, select bank0
	movwf	(??_ee_eraseNPos+0)+0
	movf	(??_ee_eraseNPos+0)+0,w
	addwf	(ee_eraseNPos@i),f
	goto	l9198
	
l3941:	
	
l9198:	
	movf	(ee_eraseNPos@n),w
	subwf	(ee_eraseNPos@i),w
	skipc
	goto	u7151
	goto	u7150
u7151:
	goto	l9194
u7150:
	goto	l3944
	
l3943:	
	line	13
	
l3944:	
	return
	opt stack 0
GLOBAL	__end_of_ee_eraseNPos
	__end_of_ee_eraseNPos:
;; =============== function _ee_eraseNPos ends ============

	signat	_ee_eraseNPos,4216
	global	_Delay
psect	text1853,local,class=CODE,delta=2
global __ptext1853
__ptext1853:

;; *************** function _Delay *****************
;; Defined at:
;;		line 71 in file "C:\Users\GauravLT\Desktop\AccessControlBy4Users\AccessControlUsingFingerSense-master\AccessControlUsingFingerSense-master\PIC16F877A_R307\eeprom.c"
;; Parameters:    Size  Location     Type
;;  d               2   13[BANK0 ] unsigned int 
;; Auto vars:     Size  Location     Type
;;  dd              4   19[BANK0 ] unsigned long 
;; Return value:  Size  Location     Type
;;		None               void
;; Registers used:
;;		wreg, status,2, status,0, pclath, cstack
;; Tracked objects:
;;		On entry : 0/0
;;		On exit  : 0/0
;;		Unchanged: 0/0
;; Data sizes:     COMMON   BANK0   BANK1   BANK3   BANK2
;;      Params:         0       2       0       0       0
;;      Locals:         0       4       0       0       0
;;      Temps:          0       4       0       0       0
;;      Totals:         0      10       0       0       0
;;Total ram usage:       10 bytes
;; Hardware stack levels used:    1
;; Hardware stack levels required when called:    3
;; This function calls:
;;		___lmul
;; This function is called by:
;;		_EraseAllUsersAfterAdminConfirm
;;		_ControlAccess
;;		_AlterAdminUser
;;		_AddNewUserAfterAdminConfirm
;;		_DeleteUserAfterAdminConfirm
;;		_main
;; This function uses a non-reentrant model
;;
psect	text1853
	file	"C:\Users\GauravLT\Desktop\AccessControlBy4Users\AccessControlUsingFingerSense-master\AccessControlUsingFingerSense-master\PIC16F877A_R307\eeprom.c"
	line	71
	global	__size_of_Delay
	__size_of_Delay	equ	__end_of_Delay-_Delay
	
_Delay:	
	opt	stack 3
; Regs used in _Delay: [wreg+status,2+status,0+pclath+cstack]
	line	72
	
l9186:	
;eeprom.c: 72: unsigned long dd=99999;
	movlw	0
	bcf	status, 5	;RP0=0, select bank0
	bcf	status, 6	;RP1=0, select bank0
	movwf	(Delay@dd+3)
	movlw	01h
	movwf	(Delay@dd+2)
	movlw	086h
	movwf	(Delay@dd+1)
	movlw	09Fh
	movwf	(Delay@dd)

	line	73
	
l9188:	
;eeprom.c: 73: dd=d*dd;
	movf	(Delay@d),w
	movwf	(?___lmul)
	movf	(Delay@d+1),w
	movwf	((?___lmul))+1
	clrf	2+((?___lmul))
	clrf	3+((?___lmul))
	movf	(Delay@dd+3),w
	movwf	3+(?___lmul)+04h
	movf	(Delay@dd+2),w
	movwf	2+(?___lmul)+04h
	movf	(Delay@dd+1),w
	movwf	1+(?___lmul)+04h
	movf	(Delay@dd),w
	movwf	0+(?___lmul)+04h

	fcall	___lmul
	bcf	status, 5	;RP0=0, select bank0
	bcf	status, 6	;RP1=0, select bank0
	movf	(3+(?___lmul)),w
	movwf	(Delay@dd+3)
	movf	(2+(?___lmul)),w
	movwf	(Delay@dd+2)
	movf	(1+(?___lmul)),w
	movwf	(Delay@dd+1)
	movf	(0+(?___lmul)),w
	movwf	(Delay@dd)

	line	74
;eeprom.c: 74: while(dd--);
	goto	l9190
	
l3978:	
	goto	l9190
	
l3977:	
	
l9190:	
	movlw	01h
	movwf	((??_Delay+0)+0)
	movlw	0
	movwf	((??_Delay+0)+0+1)
	movlw	0
	movwf	((??_Delay+0)+0+2)
	movlw	0
	movwf	((??_Delay+0)+0+3)
	movf	0+(??_Delay+0)+0,w
	subwf	(Delay@dd),f
	movf	1+(??_Delay+0)+0,w
	skipc
	incfsz	1+(??_Delay+0)+0,w
	goto	u7135
	goto	u7136
u7135:
	subwf	(Delay@dd+1),f
u7136:
	movf	2+(??_Delay+0)+0,w
	skipc
	incfsz	2+(??_Delay+0)+0,w
	goto	u7137
	goto	u7138
u7137:
	subwf	(Delay@dd+2),f
u7138:
	movf	3+(??_Delay+0)+0,w
	skipc
	incfsz	3+(??_Delay+0)+0,w
	goto	u7139
	goto	u7130
u7139:
	subwf	(Delay@dd+3),f
u7130:

	movlw	0FFh
	xorwf	((Delay@dd+3)),w
	skipz
	goto	u7145
	movlw	0FFh
	xorwf	((Delay@dd+2)),w
	skipz
	goto	u7145
	movlw	0FFh
	xorwf	((Delay@dd+1)),w
	skipz
	goto	u7145
	movlw	0FFh
	xorwf	((Delay@dd)),w
u7145:
	skipz
	goto	u7141
	goto	u7140
u7141:
	goto	l9190
u7140:
	goto	l3980
	
l3979:	
	line	75
	
l3980:	
	return
	opt stack 0
GLOBAL	__end_of_Delay
	__end_of_Delay:
;; =============== function _Delay ends ============

	signat	_Delay,4216
	global	_SendByte
psect	text1854,local,class=CODE,delta=2
global __ptext1854
__ptext1854:

;; *************** function _SendByte *****************
;; Defined at:
;;		line 77 in file "C:\Users\GauravLT\Desktop\AccessControlBy4Users\AccessControlUsingFingerSense-master\AccessControlUsingFingerSense-master\PIC16F877A_R307\lcd.c"
;; Parameters:    Size  Location     Type
;;  Mode            1    wreg     enum E1090
;;  val             1    2[BANK0 ] unsigned char 
;; Auto vars:     Size  Location     Type
;;  Mode            1    4[BANK0 ] enum E1090
;; Return value:  Size  Location     Type
;;		None               void
;; Registers used:
;;		wreg, status,2, status,0, pclath, cstack
;; Tracked objects:
;;		On entry : 0/0
;;		On exit  : 0/0
;;		Unchanged: 0/0
;; Data sizes:     COMMON   BANK0   BANK1   BANK3   BANK2
;;      Params:         0       1       0       0       0
;;      Locals:         0       1       0       0       0
;;      Temps:          0       1       0       0       0
;;      Totals:         0       3       0       0       0
;;Total ram usage:        3 bytes
;; Hardware stack levels used:    1
;; Hardware stack levels required when called:    3
;; This function calls:
;;		_LcdDelay
;; This function is called by:
;;		_LcdInit
;;		_UploadLcdBuffer
;;		_LcdClear
;; This function uses a non-reentrant model
;;
psect	text1854
	file	"C:\Users\GauravLT\Desktop\AccessControlBy4Users\AccessControlUsingFingerSense-master\AccessControlUsingFingerSense-master\PIC16F877A_R307\lcd.c"
	line	77
	global	__size_of_SendByte
	__size_of_SendByte	equ	__end_of_SendByte-_SendByte
	
_SendByte:	
	opt	stack 1
; Regs used in _SendByte: [wreg+status,2+status,0+pclath+cstack]
;SendByte@Mode stored from wreg
	bcf	status, 5	;RP0=0, select bank0
	bcf	status, 6	;RP1=0, select bank0
	movwf	(SendByte@Mode)
	line	78
	
l9170:	
;lcd.c: 78: if(Mode == Data && val == 0) val = ' ';
	movf	(SendByte@Mode),w
	xorlw	01h
	skipz
	goto	u7091
	goto	u7090
u7091:
	goto	l728
u7090:
	
l9172:	
	movf	(SendByte@val),f
	skipz
	goto	u7101
	goto	u7100
u7101:
	goto	l728
u7100:
	
l9174:	
	movlw	(020h)
	movwf	(??_SendByte+0)+0
	movf	(??_SendByte+0)+0,w
	movwf	(SendByte@val)
	
l728:	
	line	79
;lcd.c: 79: PORTD = val;
	movf	(SendByte@val),w
	movwf	(8)	;volatile
	line	81
	
l9176:	
;lcd.c: 81: RB2 = Mode;
	btfsc	(SendByte@Mode),0
	goto	u7111
	goto	u7110
	
u7111:
	bcf	status, 5	;RP0=0, select bank0
	bcf	status, 6	;RP1=0, select bank0
	bsf	(50/8),(50)&7
	goto	u7124
u7110:
	bcf	status, 5	;RP0=0, select bank0
	bcf	status, 6	;RP1=0, select bank0
	bcf	(50/8),(50)&7
u7124:
	line	82
	
l9178:	
;lcd.c: 82: RB3=0;
	bcf	(51/8),(51)&7
	line	83
	
l9180:	
;lcd.c: 83: LcdDelay(500);
	movlw	low(01F4h)
	movwf	(?_LcdDelay)
	movlw	high(01F4h)
	movwf	((?_LcdDelay))+1
	fcall	_LcdDelay
	line	84
	
l9182:	
;lcd.c: 84: RB3=1;
	bcf	status, 5	;RP0=0, select bank0
	bcf	status, 6	;RP1=0, select bank0
	bsf	(51/8),(51)&7
	line	85
	
l9184:	
;lcd.c: 85: LcdDelay(500);
	movlw	low(01F4h)
	movwf	(?_LcdDelay)
	movlw	high(01F4h)
	movwf	((?_LcdDelay))+1
	fcall	_LcdDelay
	line	86
	
l729:	
	return
	opt stack 0
GLOBAL	__end_of_SendByte
	__end_of_SendByte:
;; =============== function _SendByte ends ============

	signat	_SendByte,8312
	global	___lldiv
psect	text1855,local,class=CODE,delta=2
global __ptext1855
__ptext1855:

;; *************** function ___lldiv *****************
;; Defined at:
;;		line 5 in file "C:\Program Files (x86)\HI-TECH Software\PICC\9.83\sources\lldiv.c"
;; Parameters:    Size  Location     Type
;;  divisor         4    0[BANK0 ] unsigned long 
;;  dividend        4    4[BANK0 ] unsigned long 
;; Auto vars:     Size  Location     Type
;;  quotient        4    9[BANK0 ] unsigned long 
;;  counter         1   13[BANK0 ] unsigned char 
;; Return value:  Size  Location     Type
;;                  4    0[BANK0 ] unsigned long 
;; Registers used:
;;		wreg, status,2, status,0
;; Tracked objects:
;;		On entry : 0/0
;;		On exit  : 0/0
;;		Unchanged: 0/0
;; Data sizes:     COMMON   BANK0   BANK1   BANK3   BANK2
;;      Params:         0       8       0       0       0
;;      Locals:         0       5       0       0       0
;;      Temps:          0       1       0       0       0
;;      Totals:         0      14       0       0       0
;;Total ram usage:       14 bytes
;; Hardware stack levels used:    1
;; Hardware stack levels required when called:    2
;; This function calls:
;;		Nothing
;; This function is called by:
;;		_TotDigits
;;		_DecToStr
;; This function uses a non-reentrant model
;;
psect	text1855
	file	"C:\Program Files (x86)\HI-TECH Software\PICC\9.83\sources\lldiv.c"
	line	5
	global	__size_of___lldiv
	__size_of___lldiv	equ	__end_of___lldiv-___lldiv
	
___lldiv:	
	opt	stack 3
; Regs used in ___lldiv: [wreg+status,2+status,0]
	line	9
	
l9146:	
	movlw	0
	bcf	status, 5	;RP0=0, select bank0
	bcf	status, 6	;RP1=0, select bank0
	movwf	(___lldiv@quotient+3)
	movlw	0
	movwf	(___lldiv@quotient+2)
	movlw	0
	movwf	(___lldiv@quotient+1)
	movlw	0
	movwf	(___lldiv@quotient)

	line	10
	movf	(___lldiv@divisor+3),w
	iorwf	(___lldiv@divisor+2),w
	iorwf	(___lldiv@divisor+1),w
	iorwf	(___lldiv@divisor),w
	skipnz
	goto	u7021
	goto	u7020
u7021:
	goto	l9166
u7020:
	line	11
	
l9148:	
	clrf	(___lldiv@counter)
	bsf	status,0
	rlf	(___lldiv@counter),f
	line	12
	goto	l9152
	
l4862:	
	line	13
	
l9150:	
	movlw	01h
	movwf	(??___lldiv+0)+0
u7035:
	clrc
	rlf	(___lldiv@divisor),f
	rlf	(___lldiv@divisor+1),f
	rlf	(___lldiv@divisor+2),f
	rlf	(___lldiv@divisor+3),f
	decfsz	(??___lldiv+0)+0
	goto	u7035
	line	14
	movlw	(01h)
	movwf	(??___lldiv+0)+0
	movf	(??___lldiv+0)+0,w
	addwf	(___lldiv@counter),f
	goto	l9152
	line	15
	
l4861:	
	line	12
	
l9152:	
	btfss	(___lldiv@divisor+3),(31)&7
	goto	u7041
	goto	u7040
u7041:
	goto	l9150
u7040:
	goto	l9154
	
l4863:	
	goto	l9154
	line	16
	
l4864:	
	line	17
	
l9154:	
	movlw	01h
	movwf	(??___lldiv+0)+0
u7055:
	clrc
	rlf	(___lldiv@quotient),f
	rlf	(___lldiv@quotient+1),f
	rlf	(___lldiv@quotient+2),f
	rlf	(___lldiv@quotient+3),f
	decfsz	(??___lldiv+0)+0
	goto	u7055
	line	18
	
l9156:	
	movf	(___lldiv@divisor+3),w
	subwf	(___lldiv@dividend+3),w
	skipz
	goto	u7065
	movf	(___lldiv@divisor+2),w
	subwf	(___lldiv@dividend+2),w
	skipz
	goto	u7065
	movf	(___lldiv@divisor+1),w
	subwf	(___lldiv@dividend+1),w
	skipz
	goto	u7065
	movf	(___lldiv@divisor),w
	subwf	(___lldiv@dividend),w
u7065:
	skipc
	goto	u7061
	goto	u7060
u7061:
	goto	l9162
u7060:
	line	19
	
l9158:	
	movf	(___lldiv@divisor),w
	subwf	(___lldiv@dividend),f
	movf	(___lldiv@divisor+1),w
	skipc
	incfsz	(___lldiv@divisor+1),w
	subwf	(___lldiv@dividend+1),f
	movf	(___lldiv@divisor+2),w
	skipc
	incfsz	(___lldiv@divisor+2),w
	subwf	(___lldiv@dividend+2),f
	movf	(___lldiv@divisor+3),w
	skipc
	incfsz	(___lldiv@divisor+3),w
	subwf	(___lldiv@dividend+3),f
	line	20
	
l9160:	
	bsf	(___lldiv@quotient)+(0/8),(0)&7
	goto	l9162
	line	21
	
l4865:	
	line	22
	
l9162:	
	movlw	01h
u7075:
	clrc
	rrf	(___lldiv@divisor+3),f
	rrf	(___lldiv@divisor+2),f
	rrf	(___lldiv@divisor+1),f
	rrf	(___lldiv@divisor),f
	addlw	-1
	skipz
	goto	u7075

	line	23
	
l9164:	
	movlw	low(01h)
	subwf	(___lldiv@counter),f
	btfss	status,2
	goto	u7081
	goto	u7080
u7081:
	goto	l9154
u7080:
	goto	l9166
	
l4866:	
	goto	l9166
	line	24
	
l4860:	
	line	25
	
l9166:	
	movf	(___lldiv@quotient+3),w
	movwf	(?___lldiv+3)
	movf	(___lldiv@quotient+2),w
	movwf	(?___lldiv+2)
	movf	(___lldiv@quotient+1),w
	movwf	(?___lldiv+1)
	movf	(___lldiv@quotient),w
	movwf	(?___lldiv)

	goto	l4867
	
l9168:	
	line	26
	
l4867:	
	return
	opt stack 0
GLOBAL	__end_of___lldiv
	__end_of___lldiv:
;; =============== function ___lldiv ends ============

	signat	___lldiv,8316
	global	___llmod
psect	text1856,local,class=CODE,delta=2
global __ptext1856
__ptext1856:

;; *************** function ___llmod *****************
;; Defined at:
;;		line 5 in file "C:\Program Files (x86)\HI-TECH Software\PICC\9.83\sources\llmod.c"
;; Parameters:    Size  Location     Type
;;  divisor         4    0[BANK0 ] unsigned long 
;;  dividend        4    4[BANK0 ] unsigned long 
;; Auto vars:     Size  Location     Type
;;  counter         1    9[BANK0 ] unsigned char 
;; Return value:  Size  Location     Type
;;                  4    0[BANK0 ] unsigned long 
;; Registers used:
;;		wreg, status,2, status,0
;; Tracked objects:
;;		On entry : 0/0
;;		On exit  : 0/0
;;		Unchanged: 0/0
;; Data sizes:     COMMON   BANK0   BANK1   BANK3   BANK2
;;      Params:         0       8       0       0       0
;;      Locals:         0       1       0       0       0
;;      Temps:          0       1       0       0       0
;;      Totals:         0      10       0       0       0
;;Total ram usage:       10 bytes
;; Hardware stack levels used:    1
;; Hardware stack levels required when called:    2
;; This function calls:
;;		Nothing
;; This function is called by:
;;		_DecToStr
;; This function uses a non-reentrant model
;;
psect	text1856
	file	"C:\Program Files (x86)\HI-TECH Software\PICC\9.83\sources\llmod.c"
	line	5
	global	__size_of___llmod
	__size_of___llmod	equ	__end_of___llmod-___llmod
	
___llmod:	
	opt	stack 3
; Regs used in ___llmod: [wreg+status,2+status,0]
	line	8
	
l9126:	
	bcf	status, 5	;RP0=0, select bank0
	bcf	status, 6	;RP1=0, select bank0
	movf	(___llmod@divisor+3),w
	iorwf	(___llmod@divisor+2),w
	iorwf	(___llmod@divisor+1),w
	iorwf	(___llmod@divisor),w
	skipnz
	goto	u6961
	goto	u6960
u6961:
	goto	l9142
u6960:
	line	9
	
l9128:	
	clrf	(___llmod@counter)
	bsf	status,0
	rlf	(___llmod@counter),f
	line	10
	goto	l9132
	
l4843:	
	line	11
	
l9130:	
	movlw	01h
	movwf	(??___llmod+0)+0
u6975:
	clrc
	rlf	(___llmod@divisor),f
	rlf	(___llmod@divisor+1),f
	rlf	(___llmod@divisor+2),f
	rlf	(___llmod@divisor+3),f
	decfsz	(??___llmod+0)+0
	goto	u6975
	line	12
	movlw	(01h)
	movwf	(??___llmod+0)+0
	movf	(??___llmod+0)+0,w
	addwf	(___llmod@counter),f
	goto	l9132
	line	13
	
l4842:	
	line	10
	
l9132:	
	btfss	(___llmod@divisor+3),(31)&7
	goto	u6981
	goto	u6980
u6981:
	goto	l9130
u6980:
	goto	l9134
	
l4844:	
	goto	l9134
	line	14
	
l4845:	
	line	15
	
l9134:	
	movf	(___llmod@divisor+3),w
	subwf	(___llmod@dividend+3),w
	skipz
	goto	u6995
	movf	(___llmod@divisor+2),w
	subwf	(___llmod@dividend+2),w
	skipz
	goto	u6995
	movf	(___llmod@divisor+1),w
	subwf	(___llmod@dividend+1),w
	skipz
	goto	u6995
	movf	(___llmod@divisor),w
	subwf	(___llmod@dividend),w
u6995:
	skipc
	goto	u6991
	goto	u6990
u6991:
	goto	l9138
u6990:
	line	16
	
l9136:	
	movf	(___llmod@divisor),w
	subwf	(___llmod@dividend),f
	movf	(___llmod@divisor+1),w
	skipc
	incfsz	(___llmod@divisor+1),w
	subwf	(___llmod@dividend+1),f
	movf	(___llmod@divisor+2),w
	skipc
	incfsz	(___llmod@divisor+2),w
	subwf	(___llmod@dividend+2),f
	movf	(___llmod@divisor+3),w
	skipc
	incfsz	(___llmod@divisor+3),w
	subwf	(___llmod@dividend+3),f
	goto	l9138
	
l4846:	
	line	17
	
l9138:	
	movlw	01h
u7005:
	clrc
	rrf	(___llmod@divisor+3),f
	rrf	(___llmod@divisor+2),f
	rrf	(___llmod@divisor+1),f
	rrf	(___llmod@divisor),f
	addlw	-1
	skipz
	goto	u7005

	line	18
	
l9140:	
	movlw	low(01h)
	subwf	(___llmod@counter),f
	btfss	status,2
	goto	u7011
	goto	u7010
u7011:
	goto	l9134
u7010:
	goto	l9142
	
l4847:	
	goto	l9142
	line	19
	
l4841:	
	line	20
	
l9142:	
	movf	(___llmod@dividend+3),w
	movwf	(?___llmod+3)
	movf	(___llmod@dividend+2),w
	movwf	(?___llmod+2)
	movf	(___llmod@dividend+1),w
	movwf	(?___llmod+1)
	movf	(___llmod@dividend),w
	movwf	(?___llmod)

	goto	l4848
	
l9144:	
	line	21
	
l4848:	
	return
	opt stack 0
GLOBAL	__end_of___llmod
	__end_of___llmod:
;; =============== function ___llmod ends ============

	signat	___llmod,8316
	global	___awdiv
psect	text1857,local,class=CODE,delta=2
global __ptext1857
__ptext1857:

;; *************** function ___awdiv *****************
;; Defined at:
;;		line 5 in file "C:\Program Files (x86)\HI-TECH Software\PICC\9.83\sources\awdiv.c"
;; Parameters:    Size  Location     Type
;;  divisor         2    0[BANK0 ] int 
;;  dividend        2    2[BANK0 ] int 
;; Auto vars:     Size  Location     Type
;;  quotient        2    7[BANK0 ] int 
;;  sign            1    6[BANK0 ] unsigned char 
;;  counter         1    5[BANK0 ] unsigned char 
;; Return value:  Size  Location     Type
;;                  2    0[BANK0 ] int 
;; Registers used:
;;		wreg, status,2, status,0
;; Tracked objects:
;;		On entry : 0/0
;;		On exit  : 0/0
;;		Unchanged: 0/0
;; Data sizes:     COMMON   BANK0   BANK1   BANK3   BANK2
;;      Params:         0       4       0       0       0
;;      Locals:         0       4       0       0       0
;;      Temps:          0       1       0       0       0
;;      Totals:         0       9       0       0       0
;;Total ram usage:        9 bytes
;; Hardware stack levels used:    1
;; Hardware stack levels required when called:    2
;; This function calls:
;;		Nothing
;; This function is called by:
;;		_ControlAccess
;; This function uses a non-reentrant model
;;
psect	text1857
	file	"C:\Program Files (x86)\HI-TECH Software\PICC\9.83\sources\awdiv.c"
	line	5
	global	__size_of___awdiv
	__size_of___awdiv	equ	__end_of___awdiv-___awdiv
	
___awdiv:	
	opt	stack 4
; Regs used in ___awdiv: [wreg+status,2+status,0]
	line	9
	
l9086:	
	bcf	status, 5	;RP0=0, select bank0
	bcf	status, 6	;RP1=0, select bank0
	clrf	(___awdiv@sign)
	line	10
	btfss	(___awdiv@divisor+1),7
	goto	u6861
	goto	u6860
u6861:
	goto	l9090
u6860:
	line	11
	
l9088:	
	comf	(___awdiv@divisor),f
	comf	(___awdiv@divisor+1),f
	incf	(___awdiv@divisor),f
	skipnz
	incf	(___awdiv@divisor+1),f
	line	12
	clrf	(___awdiv@sign)
	bsf	status,0
	rlf	(___awdiv@sign),f
	goto	l9090
	line	13
	
l4828:	
	line	14
	
l9090:	
	btfss	(___awdiv@dividend+1),7
	goto	u6871
	goto	u6870
u6871:
	goto	l9096
u6870:
	line	15
	
l9092:	
	comf	(___awdiv@dividend),f
	comf	(___awdiv@dividend+1),f
	incf	(___awdiv@dividend),f
	skipnz
	incf	(___awdiv@dividend+1),f
	line	16
	
l9094:	
	movlw	(01h)
	movwf	(??___awdiv+0)+0
	movf	(??___awdiv+0)+0,w
	xorwf	(___awdiv@sign),f
	goto	l9096
	line	17
	
l4829:	
	line	18
	
l9096:	
	clrf	(___awdiv@quotient)
	clrf	(___awdiv@quotient+1)
	line	19
	
l9098:	
	movf	(___awdiv@divisor+1),w
	iorwf	(___awdiv@divisor),w
	skipnz
	goto	u6881
	goto	u6880
u6881:
	goto	l9118
u6880:
	line	20
	
l9100:	
	clrf	(___awdiv@counter)
	bsf	status,0
	rlf	(___awdiv@counter),f
	line	21
	goto	l9106
	
l4832:	
	line	22
	
l9102:	
	movlw	01h
	
u6895:
	clrc
	rlf	(___awdiv@divisor),f
	rlf	(___awdiv@divisor+1),f
	addlw	-1
	skipz
	goto	u6895
	line	23
	
l9104:	
	movlw	(01h)
	movwf	(??___awdiv+0)+0
	movf	(??___awdiv+0)+0,w
	addwf	(___awdiv@counter),f
	goto	l9106
	line	24
	
l4831:	
	line	21
	
l9106:	
	btfss	(___awdiv@divisor+1),(15)&7
	goto	u6901
	goto	u6900
u6901:
	goto	l9102
u6900:
	goto	l9108
	
l4833:	
	goto	l9108
	line	25
	
l4834:	
	line	26
	
l9108:	
	movlw	01h
	
u6915:
	clrc
	rlf	(___awdiv@quotient),f
	rlf	(___awdiv@quotient+1),f
	addlw	-1
	skipz
	goto	u6915
	line	27
	movf	(___awdiv@divisor+1),w
	subwf	(___awdiv@dividend+1),w
	skipz
	goto	u6925
	movf	(___awdiv@divisor),w
	subwf	(___awdiv@dividend),w
u6925:
	skipc
	goto	u6921
	goto	u6920
u6921:
	goto	l9114
u6920:
	line	28
	
l9110:	
	movf	(___awdiv@divisor),w
	subwf	(___awdiv@dividend),f
	movf	(___awdiv@divisor+1),w
	skipc
	decf	(___awdiv@dividend+1),f
	subwf	(___awdiv@dividend+1),f
	line	29
	
l9112:	
	bsf	(___awdiv@quotient)+(0/8),(0)&7
	goto	l9114
	line	30
	
l4835:	
	line	31
	
l9114:	
	movlw	01h
	
u6935:
	clrc
	rrf	(___awdiv@divisor+1),f
	rrf	(___awdiv@divisor),f
	addlw	-1
	skipz
	goto	u6935
	line	32
	
l9116:	
	movlw	low(01h)
	subwf	(___awdiv@counter),f
	btfss	status,2
	goto	u6941
	goto	u6940
u6941:
	goto	l9108
u6940:
	goto	l9118
	
l4836:	
	goto	l9118
	line	33
	
l4830:	
	line	34
	
l9118:	
	movf	(___awdiv@sign),w
	skipz
	goto	u6950
	goto	l9122
u6950:
	line	35
	
l9120:	
	comf	(___awdiv@quotient),f
	comf	(___awdiv@quotient+1),f
	incf	(___awdiv@quotient),f
	skipnz
	incf	(___awdiv@quotient+1),f
	goto	l9122
	
l4837:	
	line	36
	
l9122:	
	movf	(___awdiv@quotient+1),w
	clrf	(?___awdiv+1)
	addwf	(?___awdiv+1)
	movf	(___awdiv@quotient),w
	clrf	(?___awdiv)
	addwf	(?___awdiv)

	goto	l4838
	
l9124:	
	line	37
	
l4838:	
	return
	opt stack 0
GLOBAL	__end_of___awdiv
	__end_of___awdiv:
;; =============== function ___awdiv ends ============

	signat	___awdiv,8314
	global	___lmul
psect	text1858,local,class=CODE,delta=2
global __ptext1858
__ptext1858:

;; *************** function ___lmul *****************
;; Defined at:
;;		line 3 in file "C:\Program Files (x86)\HI-TECH Software\PICC\9.83\sources\lmul.c"
;; Parameters:    Size  Location     Type
;;  multiplier      4    0[BANK0 ] unsigned long 
;;  multiplicand    4    4[BANK0 ] unsigned long 
;; Auto vars:     Size  Location     Type
;;  product         4    9[BANK0 ] unsigned long 
;; Return value:  Size  Location     Type
;;                  4    0[BANK0 ] unsigned long 
;; Registers used:
;;		wreg, status,2, status,0
;; Tracked objects:
;;		On entry : 0/0
;;		On exit  : 0/0
;;		Unchanged: 0/0
;; Data sizes:     COMMON   BANK0   BANK1   BANK3   BANK2
;;      Params:         0       8       0       0       0
;;      Locals:         0       4       0       0       0
;;      Temps:          0       1       0       0       0
;;      Totals:         0      13       0       0       0
;;Total ram usage:       13 bytes
;; Hardware stack levels used:    1
;; Hardware stack levels required when called:    2
;; This function calls:
;;		Nothing
;; This function is called by:
;;		_Delay
;; This function uses a non-reentrant model
;;
psect	text1858
	file	"C:\Program Files (x86)\HI-TECH Software\PICC\9.83\sources\lmul.c"
	line	3
	global	__size_of___lmul
	__size_of___lmul	equ	__end_of___lmul-___lmul
	
___lmul:	
	opt	stack 3
; Regs used in ___lmul: [wreg+status,2+status,0]
	line	4
	
l9072:	
	movlw	0
	bcf	status, 5	;RP0=0, select bank0
	bcf	status, 6	;RP1=0, select bank0
	movwf	(___lmul@product+3)
	movlw	0
	movwf	(___lmul@product+2)
	movlw	0
	movwf	(___lmul@product+1)
	movlw	0
	movwf	(___lmul@product)

	goto	l9074
	line	6
	
l4763:	
	line	7
	
l9074:	
	btfss	(___lmul@multiplier),(0)&7
	goto	u6811
	goto	u6810
u6811:
	goto	l9078
u6810:
	line	8
	
l9076:	
	movf	(___lmul@multiplicand),w
	addwf	(___lmul@product),f
	movf	(___lmul@multiplicand+1),w
	clrz
	skipnc
	addlw	1
	skipnz
	goto	u6821
	addwf	(___lmul@product+1),f
u6821:
	movf	(___lmul@multiplicand+2),w
	clrz
	skipnc
	addlw	1
	skipnz
	goto	u6822
	addwf	(___lmul@product+2),f
u6822:
	movf	(___lmul@multiplicand+3),w
	clrz
	skipnc
	addlw	1
	skipnz
	goto	u6823
	addwf	(___lmul@product+3),f
u6823:

	goto	l9078
	
l4764:	
	line	9
	
l9078:	
	movlw	01h
	movwf	(??___lmul+0)+0
u6835:
	clrc
	rlf	(___lmul@multiplicand),f
	rlf	(___lmul@multiplicand+1),f
	rlf	(___lmul@multiplicand+2),f
	rlf	(___lmul@multiplicand+3),f
	decfsz	(??___lmul+0)+0
	goto	u6835
	line	10
	
l9080:	
	movlw	01h
u6845:
	clrc
	rrf	(___lmul@multiplier+3),f
	rrf	(___lmul@multiplier+2),f
	rrf	(___lmul@multiplier+1),f
	rrf	(___lmul@multiplier),f
	addlw	-1
	skipz
	goto	u6845

	line	11
	movf	(___lmul@multiplier+3),w
	iorwf	(___lmul@multiplier+2),w
	iorwf	(___lmul@multiplier+1),w
	iorwf	(___lmul@multiplier),w
	skipz
	goto	u6851
	goto	u6850
u6851:
	goto	l9074
u6850:
	goto	l9082
	
l4765:	
	line	12
	
l9082:	
	movf	(___lmul@product+3),w
	movwf	(?___lmul+3)
	movf	(___lmul@product+2),w
	movwf	(?___lmul+2)
	movf	(___lmul@product+1),w
	movwf	(?___lmul+1)
	movf	(___lmul@product),w
	movwf	(?___lmul)

	goto	l4766
	
l9084:	
	line	13
	
l4766:	
	return
	opt stack 0
GLOBAL	__end_of___lmul
	__end_of___lmul:
;; =============== function ___lmul ends ============

	signat	___lmul,8316
	global	___bmul
psect	text1859,local,class=CODE,delta=2
global __ptext1859
__ptext1859:

;; *************** function ___bmul *****************
;; Defined at:
;;		line 3 in file "C:\Program Files (x86)\HI-TECH Software\PICC\9.83\sources\bmul.c"
;; Parameters:    Size  Location     Type
;;  multiplier      1    wreg     unsigned char 
;;  multiplicand    1    0[BANK0 ] unsigned char 
;; Auto vars:     Size  Location     Type
;;  multiplier      1    3[BANK0 ] unsigned char 
;;  product         1    2[BANK0 ] unsigned char 
;; Return value:  Size  Location     Type
;;                  1    wreg      unsigned char 
;; Registers used:
;;		wreg, status,2, status,0
;; Tracked objects:
;;		On entry : 0/0
;;		On exit  : 0/0
;;		Unchanged: 0/0
;; Data sizes:     COMMON   BANK0   BANK1   BANK3   BANK2
;;      Params:         0       1       0       0       0
;;      Locals:         0       2       0       0       0
;;      Temps:          0       1       0       0       0
;;      Totals:         0       4       0       0       0
;;Total ram usage:        4 bytes
;; Hardware stack levels used:    1
;; Hardware stack levels required when called:    2
;; This function calls:
;;		Nothing
;; This function is called by:
;;		_ControlAccess
;;		_AddNewUserAfterAdminConfirm
;;		_DeleteUserAfterAdminConfirm
;; This function uses a non-reentrant model
;;
psect	text1859
	file	"C:\Program Files (x86)\HI-TECH Software\PICC\9.83\sources\bmul.c"
	line	3
	global	__size_of___bmul
	__size_of___bmul	equ	__end_of___bmul-___bmul
	
___bmul:	
	opt	stack 4
; Regs used in ___bmul: [wreg+status,2+status,0]
;___bmul@multiplier stored from wreg
	bcf	status, 5	;RP0=0, select bank0
	bcf	status, 6	;RP1=0, select bank0
	movwf	(___bmul@multiplier)
	line	4
	
l9058:	
	clrf	(___bmul@product)
	line	6
	
l4682:	
	line	7
	btfss	(___bmul@multiplier),(0)&7
	goto	u6791
	goto	u6790
u6791:
	goto	l9062
u6790:
	line	8
	
l9060:	
	movf	(___bmul@multiplicand),w
	movwf	(??___bmul+0)+0
	movf	(??___bmul+0)+0,w
	addwf	(___bmul@product),f
	goto	l9062
	
l4683:	
	line	9
	
l9062:	
	clrc
	rlf	(___bmul@multiplicand),f

	line	10
	
l9064:	
	clrc
	rrf	(___bmul@multiplier),f

	line	11
	
l9066:	
	movf	(___bmul@multiplier),f
	skipz
	goto	u6801
	goto	u6800
u6801:
	goto	l4682
u6800:
	goto	l9068
	
l4684:	
	line	12
	
l9068:	
	movf	(___bmul@product),w
	goto	l4685
	
l9070:	
	line	13
	
l4685:	
	return
	opt stack 0
GLOBAL	__end_of___bmul
	__end_of___bmul:
;; =============== function ___bmul ends ============

	signat	___bmul,8313
	global	_ToggleEndianFormat
psect	text1860,local,class=CODE,delta=2
global __ptext1860
__ptext1860:

;; *************** function _ToggleEndianFormat *****************
;; Defined at:
;;		line 122 in file "C:\Users\GauravLT\Desktop\AccessControlBy4Users\AccessControlUsingFingerSense-master\AccessControlUsingFingerSense-master\PIC16F877A_R307\FingerPrintSensor_R307.c"
;; Parameters:    Size  Location     Type
;;  val             4    0[BANK0 ] unsigned long 
;;  size            1    4[BANK0 ] unsigned char 
;; Auto vars:     Size  Location     Type
;;  result          2   21[BANK0 ] unsigned int 
;; Return value:  Size  Location     Type
;;                  4    0[BANK0 ] unsigned long 
;; Registers used:
;;		wreg, status,2, status,0
;; Tracked objects:
;;		On entry : 0/0
;;		On exit  : 0/0
;;		Unchanged: 0/0
;; Data sizes:     COMMON   BANK0   BANK1   BANK3   BANK2
;;      Params:         0       5       0       0       0
;;      Locals:         0       2       0       0       0
;;      Temps:          0      16       0       0       0
;;      Totals:         0      23       0       0       0
;;Total ram usage:       23 bytes
;; Hardware stack levels used:    1
;; Hardware stack levels required when called:    2
;; This function calls:
;;		Nothing
;; This function is called by:
;;		_FillUpResponse
;; This function uses a non-reentrant model
;;
psect	text1860
	file	"C:\Users\GauravLT\Desktop\AccessControlBy4Users\AccessControlUsingFingerSense-master\AccessControlUsingFingerSense-master\PIC16F877A_R307\FingerPrintSensor_R307.c"
	line	122
	global	__size_of_ToggleEndianFormat
	__size_of_ToggleEndianFormat	equ	__end_of_ToggleEndianFormat-_ToggleEndianFormat
	
_ToggleEndianFormat:	
	opt	stack 2
; Regs used in _ToggleEndianFormat: [wreg+status,2+status,0]
	line	123
	
l7544:	
;FingerPrintSensor_R307.c: 123: if(size == 1){}
	bcf	status, 5	;RP0=0, select bank0
	bcf	status, 6	;RP1=0, select bank0
	movf	(ToggleEndianFormat@size),w
	xorlw	01h
	skipz
	goto	u4381
	goto	u4380
u4381:
	goto	l7548
u4380:
	goto	l3096
	
l7546:	
	goto	l3096
	line	124
	
l3095:	
	
l7548:	
;FingerPrintSensor_R307.c: 124: else if(size == 2)
	movf	(ToggleEndianFormat@size),w
	xorlw	02h
	skipz
	goto	u4391
	goto	u4390
u4391:
	goto	l7558
u4390:
	line	126
	
l7550:	
;FingerPrintSensor_R307.c: 125: {
;FingerPrintSensor_R307.c: 126: unsigned int result=(unsigned int)val;
	movf	(ToggleEndianFormat@val+1),w
	clrf	(ToggleEndianFormat@result+1)
	addwf	(ToggleEndianFormat@result+1)
	movf	(ToggleEndianFormat@val),w
	clrf	(ToggleEndianFormat@result)
	addwf	(ToggleEndianFormat@result)

	line	127
;FingerPrintSensor_R307.c: 127: result = (result<<8 | result >> 8);
	movf	(ToggleEndianFormat@result+1),w
	movwf	(??_ToggleEndianFormat+0)+0+1
	movf	(ToggleEndianFormat@result),w
	movwf	(??_ToggleEndianFormat+0)+0
	movlw	08h
u4405:
	clrc
	rrf	(??_ToggleEndianFormat+0)+1,f
	rrf	(??_ToggleEndianFormat+0)+0,f
	addlw	-1
	skipz
	goto	u4405
	movf	(ToggleEndianFormat@result),w
	movwf	(??_ToggleEndianFormat+2)+0+1
	clrf	(??_ToggleEndianFormat+2)+0
	movf	0+(??_ToggleEndianFormat+0)+0,w
	iorwf	0+(??_ToggleEndianFormat+2)+0,w
	movwf	(ToggleEndianFormat@result)
	movf	1+(??_ToggleEndianFormat+0)+0,w
	iorwf	1+(??_ToggleEndianFormat+2)+0,w
	movwf	1+(ToggleEndianFormat@result)
	line	128
	
l7552:	
;FingerPrintSensor_R307.c: 128: return result;
	movf	(ToggleEndianFormat@result),w
	movwf	(?_ToggleEndianFormat)
	movf	(ToggleEndianFormat@result+1),w
	movwf	((?_ToggleEndianFormat))+1
	clrf	2+((?_ToggleEndianFormat))
	clrf	3+((?_ToggleEndianFormat))
	goto	l3098
	
l7554:	
	goto	l3098
	line	129
	
l7556:	
;FingerPrintSensor_R307.c: 129: }
	goto	l3096
	line	130
	
l3097:	
	
l7558:	
;FingerPrintSensor_R307.c: 130: else if(size == 4)
	movf	(ToggleEndianFormat@size),w
	xorlw	04h
	skipz
	goto	u4411
	goto	u4410
u4411:
	goto	l3096
u4410:
	line	132
	
l7560:	
;FingerPrintSensor_R307.c: 131: {
;FingerPrintSensor_R307.c: 132: return (val<<24 | ((val>>8)<<16) | ((val>>16)<<8) | val>>24);
	movf	(ToggleEndianFormat@val),w
	movwf	(??_ToggleEndianFormat+0)+0
	movf	(ToggleEndianFormat@val+1),w
	movwf	((??_ToggleEndianFormat+0)+0+1)
	movf	(ToggleEndianFormat@val+2),w
	movwf	((??_ToggleEndianFormat+0)+0+2)
	movf	(ToggleEndianFormat@val+3),w
	movwf	((??_ToggleEndianFormat+0)+0+3)
	movlw	018h
u4425:
	clrc
	rrf	(??_ToggleEndianFormat+0)+3,f
	rrf	(??_ToggleEndianFormat+0)+2,f
	rrf	(??_ToggleEndianFormat+0)+1,f
	rrf	(??_ToggleEndianFormat+0)+0,f
u4420:
	addlw	-1
	skipz
	goto	u4425
	movf	(ToggleEndianFormat@val),w
	movwf	(??_ToggleEndianFormat+4)+0
	movf	(ToggleEndianFormat@val+1),w
	movwf	((??_ToggleEndianFormat+4)+0+1)
	movf	(ToggleEndianFormat@val+2),w
	movwf	((??_ToggleEndianFormat+4)+0+2)
	movf	(ToggleEndianFormat@val+3),w
	movwf	((??_ToggleEndianFormat+4)+0+3)
	movlw	010h
u4435:
	clrc
	rrf	(??_ToggleEndianFormat+4)+3,f
	rrf	(??_ToggleEndianFormat+4)+2,f
	rrf	(??_ToggleEndianFormat+4)+1,f
	rrf	(??_ToggleEndianFormat+4)+0,f
u4430:
	addlw	-1
	skipz
	goto	u4435
	movlw	08h
u4445:
	clrc
	rlf	(??_ToggleEndianFormat+4)+0,f
	rlf	(??_ToggleEndianFormat+4)+1,f
	rlf	(??_ToggleEndianFormat+4)+2,f
	rlf	(??_ToggleEndianFormat+4)+3,f
u4440:
	addlw	-1
	skipz
	goto	u4445
	movf	(ToggleEndianFormat@val),w
	movwf	(??_ToggleEndianFormat+8)+0
	movf	(ToggleEndianFormat@val+1),w
	movwf	((??_ToggleEndianFormat+8)+0+1)
	movf	(ToggleEndianFormat@val+2),w
	movwf	((??_ToggleEndianFormat+8)+0+2)
	movf	(ToggleEndianFormat@val+3),w
	movwf	((??_ToggleEndianFormat+8)+0+3)
	movlw	08h
u4455:
	clrc
	rrf	(??_ToggleEndianFormat+8)+3,f
	rrf	(??_ToggleEndianFormat+8)+2,f
	rrf	(??_ToggleEndianFormat+8)+1,f
	rrf	(??_ToggleEndianFormat+8)+0,f
u4450:
	addlw	-1
	skipz
	goto	u4455
	movlw	010h
u4465:
	clrc
	rlf	(??_ToggleEndianFormat+8)+0,f
	rlf	(??_ToggleEndianFormat+8)+1,f
	rlf	(??_ToggleEndianFormat+8)+2,f
	rlf	(??_ToggleEndianFormat+8)+3,f
u4460:
	addlw	-1
	skipz
	goto	u4465
	movf	(ToggleEndianFormat@val),w
	movwf	(??_ToggleEndianFormat+12)+0
	movf	(ToggleEndianFormat@val+1),w
	movwf	((??_ToggleEndianFormat+12)+0+1)
	movf	(ToggleEndianFormat@val+2),w
	movwf	((??_ToggleEndianFormat+12)+0+2)
	movf	(ToggleEndianFormat@val+3),w
	movwf	((??_ToggleEndianFormat+12)+0+3)
	movlw	018h
u4475:
	clrc
	rlf	(??_ToggleEndianFormat+12)+0,f
	rlf	(??_ToggleEndianFormat+12)+1,f
	rlf	(??_ToggleEndianFormat+12)+2,f
	rlf	(??_ToggleEndianFormat+12)+3,f
u4470:
	addlw	-1
	skipz
	goto	u4475
	movf	0+(??_ToggleEndianFormat+12)+0,w
	iorwf	(??_ToggleEndianFormat+8)+0,f
	movf	1+(??_ToggleEndianFormat+12)+0,w
	iorwf	(??_ToggleEndianFormat+8)+1,f
	movf	2+(??_ToggleEndianFormat+12)+0,w
	iorwf	(??_ToggleEndianFormat+8)+2,f
	movf	3+(??_ToggleEndianFormat+12)+0,w
	iorwf	(??_ToggleEndianFormat+8)+3,f
	movf	0+(??_ToggleEndianFormat+8)+0,w
	iorwf	(??_ToggleEndianFormat+4)+0,f
	movf	1+(??_ToggleEndianFormat+8)+0,w
	iorwf	(??_ToggleEndianFormat+4)+1,f
	movf	2+(??_ToggleEndianFormat+8)+0,w
	iorwf	(??_ToggleEndianFormat+4)+2,f
	movf	3+(??_ToggleEndianFormat+8)+0,w
	iorwf	(??_ToggleEndianFormat+4)+3,f
	movf	0+(??_ToggleEndianFormat+0)+0,w
	iorwf	0+(??_ToggleEndianFormat+4)+0,w
	movwf	(?_ToggleEndianFormat)
	movf	1+(??_ToggleEndianFormat+0)+0,w
	iorwf	1+(??_ToggleEndianFormat+4)+0,w
	movwf	1+(?_ToggleEndianFormat)
	movf	2+(??_ToggleEndianFormat+0)+0,w
	iorwf	2+(??_ToggleEndianFormat+4)+0,w
	movwf	2+(?_ToggleEndianFormat)
	movf	3+(??_ToggleEndianFormat+0)+0,w
	iorwf	3+(??_ToggleEndianFormat+4)+0,w
	movwf	3+(?_ToggleEndianFormat)
	goto	l3098
	
l7562:	
	goto	l3098
	line	133
	
l3100:	
	goto	l3096
	line	134
	
l3099:	
	
l3096:	
;FingerPrintSensor_R307.c: 133: }
;FingerPrintSensor_R307.c: 134: return val;
	line	135
	
l3098:	
	return
	opt stack 0
GLOBAL	__end_of_ToggleEndianFormat
	__end_of_ToggleEndianFormat:
;; =============== function _ToggleEndianFormat ends ============

	signat	_ToggleEndianFormat,8316
	global	_GetUartByte
psect	text1861,local,class=CODE,delta=2
global __ptext1861
__ptext1861:

;; *************** function _GetUartByte *****************
;; Defined at:
;;		line 81 in file "C:\Users\GauravLT\Desktop\AccessControlBy4Users\AccessControlUsingFingerSense-master\AccessControlUsingFingerSense-master\PIC16F877A_R307\FingerPrintSensor_R307.c"
;; Parameters:    Size  Location     Type
;;		None
;; Auto vars:     Size  Location     Type
;;  val             1    1[BANK0 ] unsigned char 
;; Return value:  Size  Location     Type
;;                  1    wreg      unsigned char 
;; Registers used:
;;		wreg, fsr0l, fsr0h, status,2, status,0
;; Tracked objects:
;;		On entry : 0/0
;;		On exit  : 0/0
;;		Unchanged: 0/0
;; Data sizes:     COMMON   BANK0   BANK1   BANK3   BANK2
;;      Params:         0       0       0       0       0
;;      Locals:         0       1       0       0       0
;;      Temps:          0       1       0       0       0
;;      Totals:         0       2       0       0       0
;;Total ram usage:        2 bytes
;; Hardware stack levels used:    1
;; Hardware stack levels required when called:    2
;; This function calls:
;;		Nothing
;; This function is called by:
;;		_FillUpResponse
;; This function uses a non-reentrant model
;;
psect	text1861
	file	"C:\Users\GauravLT\Desktop\AccessControlBy4Users\AccessControlUsingFingerSense-master\AccessControlUsingFingerSense-master\PIC16F877A_R307\FingerPrintSensor_R307.c"
	line	81
	global	__size_of_GetUartByte
	__size_of_GetUartByte	equ	__end_of_GetUartByte-_GetUartByte
	
_GetUartByte:	
	opt	stack 2
; Regs used in _GetUartByte: [wreg-fsr0h+status,2+status,0]
	line	82
	
l8980:	
;FingerPrintSensor_R307.c: 82: unsigned char val = UartBuffer[UartOxPtr];
	movf	(_UartOxPtr),w
	addlw	_UartBuffer&0ffh
	movwf	fsr0
	bsf	status, 7	;select IRP bank2
	movf	indf,w
	bcf	status, 5	;RP0=0, select bank0
	bcf	status, 6	;RP1=0, select bank0
	movwf	(??_GetUartByte+0)+0
	movf	(??_GetUartByte+0)+0,w
	movwf	(GetUartByte@val)
	line	83
	
l8982:	
;FingerPrintSensor_R307.c: 83: if(++UartOxPtr == 56)
	movlw	(01h)
	movwf	(??_GetUartByte+0)+0
	movf	(??_GetUartByte+0)+0,w
	addwf	(_UartOxPtr),f
	movf	((_UartOxPtr)),w
	xorlw	038h
	skipz
	goto	u6691
	goto	u6690
u6691:
	goto	l8986
u6690:
	line	84
	
l8984:	
;FingerPrintSensor_R307.c: 84: UartOxPtr = 0;
	clrf	(_UartOxPtr)
	goto	l8986
	
l3085:	
	line	86
	
l8986:	
;FingerPrintSensor_R307.c: 86: return val;
	movf	(GetUartByte@val),w
	goto	l3086
	
l8988:	
	line	87
	
l3086:	
	return
	opt stack 0
GLOBAL	__end_of_GetUartByte
	__end_of_GetUartByte:
;; =============== function _GetUartByte ends ============

	signat	_GetUartByte,89
	global	_IsUartBytePending
psect	text1862,local,class=CODE,delta=2
global __ptext1862
__ptext1862:

;; *************** function _IsUartBytePending *****************
;; Defined at:
;;		line 71 in file "C:\Users\GauravLT\Desktop\AccessControlBy4Users\AccessControlUsingFingerSense-master\AccessControlUsingFingerSense-master\PIC16F877A_R307\FingerPrintSensor_R307.c"
;; Parameters:    Size  Location     Type
;;		None
;; Auto vars:     Size  Location     Type
;;		None
;; Return value:  Size  Location     Type
;;                  1    wreg      unsigned char 
;; Registers used:
;;		wreg
;; Tracked objects:
;;		On entry : 0/0
;;		On exit  : 0/0
;;		Unchanged: 0/0
;; Data sizes:     COMMON   BANK0   BANK1   BANK3   BANK2
;;      Params:         0       0       0       0       0
;;      Locals:         0       0       0       0       0
;;      Temps:          0       0       0       0       0
;;      Totals:         0       0       0       0       0
;;Total ram usage:        0 bytes
;; Hardware stack levels used:    1
;; Hardware stack levels required when called:    2
;; This function calls:
;;		Nothing
;; This function is called by:
;;		_FillUpResponse
;; This function uses a non-reentrant model
;;
psect	text1862
	file	"C:\Users\GauravLT\Desktop\AccessControlBy4Users\AccessControlUsingFingerSense-master\AccessControlUsingFingerSense-master\PIC16F877A_R307\FingerPrintSensor_R307.c"
	line	71
	global	__size_of_IsUartBytePending
	__size_of_IsUartBytePending	equ	__end_of_IsUartBytePending-_IsUartBytePending
	
_IsUartBytePending:	
	opt	stack 2
; Regs used in _IsUartBytePending: [wreg]
	line	72
	
l8976:	
;FingerPrintSensor_R307.c: 72: return UartIxPtr != UartOxPtr;
	movf	(_UartIxPtr),w
	xorwf	(_UartOxPtr),w
	movlw	0
	skipz
	movlw	1
	goto	l3078
	
l8978:	
	line	73
	
l3078:	
	return
	opt stack 0
GLOBAL	__end_of_IsUartBytePending
	__end_of_IsUartBytePending:
;; =============== function _IsUartBytePending ends ============

	signat	_IsUartBytePending,89
	global	_ClearUartBuffer
psect	text1863,local,class=CODE,delta=2
global __ptext1863
__ptext1863:

;; *************** function _ClearUartBuffer *****************
;; Defined at:
;;		line 65 in file "C:\Users\GauravLT\Desktop\AccessControlBy4Users\AccessControlUsingFingerSense-master\AccessControlUsingFingerSense-master\PIC16F877A_R307\FingerPrintSensor_R307.c"
;; Parameters:    Size  Location     Type
;;		None
;; Auto vars:     Size  Location     Type
;;  i               1    1[BANK0 ] unsigned char 
;; Return value:  Size  Location     Type
;;		None               void
;; Registers used:
;;		wreg, fsr0l, fsr0h, status,2, status,0
;; Tracked objects:
;;		On entry : 0/0
;;		On exit  : 0/0
;;		Unchanged: 0/0
;; Data sizes:     COMMON   BANK0   BANK1   BANK3   BANK2
;;      Params:         0       0       0       0       0
;;      Locals:         0       1       0       0       0
;;      Temps:          0       1       0       0       0
;;      Totals:         0       2       0       0       0
;;Total ram usage:        2 bytes
;; Hardware stack levels used:    1
;; Hardware stack levels required when called:    2
;; This function calls:
;;		Nothing
;; This function is called by:
;;		_DeleteUser
;;		_VerifyPswd
;;		_ScanForImage
;;		_GenCharacterFileFromImage
;;		_HiSpeedScan
;;		_EraseAllUsers
;;		_AddUserA
;;		_AddUserB
;;		_AddUserC
;;		_LoadFingerTemplate
;;		_MatchTemplate
;; This function uses a non-reentrant model
;;
psect	text1863
	file	"C:\Users\GauravLT\Desktop\AccessControlBy4Users\AccessControlUsingFingerSense-master\AccessControlUsingFingerSense-master\PIC16F877A_R307\FingerPrintSensor_R307.c"
	line	65
	global	__size_of_ClearUartBuffer
	__size_of_ClearUartBuffer	equ	__end_of_ClearUartBuffer-_ClearUartBuffer
	
_ClearUartBuffer:	
	opt	stack 3
; Regs used in _ClearUartBuffer: [wreg-fsr0h+status,2+status,0]
	line	67
	
l8962:	
;FingerPrintSensor_R307.c: 66: unsigned char i;
;FingerPrintSensor_R307.c: 67: for(i=0; i<56; i++) UartBuffer[i]=0;
	bcf	status, 5	;RP0=0, select bank0
	bcf	status, 6	;RP1=0, select bank0
	clrf	(ClearUartBuffer@i)
	
l8964:	
	movlw	(038h)
	subwf	(ClearUartBuffer@i),w
	skipc
	goto	u6671
	goto	u6670
u6671:
	goto	l8968
u6670:
	goto	l8974
	
l8966:	
	goto	l8974
	
l3073:	
	
l8968:	
	movf	(ClearUartBuffer@i),w
	addlw	_UartBuffer&0ffh
	movwf	fsr0
	bsf	status, 7	;select IRP bank2
	clrf	indf
	
l8970:	
	movlw	(01h)
	movwf	(??_ClearUartBuffer+0)+0
	movf	(??_ClearUartBuffer+0)+0,w
	addwf	(ClearUartBuffer@i),f
	
l8972:	
	movlw	(038h)
	subwf	(ClearUartBuffer@i),w
	skipc
	goto	u6681
	goto	u6680
u6681:
	goto	l8968
u6680:
	goto	l8974
	
l3074:	
	line	68
	
l8974:	
;FingerPrintSensor_R307.c: 68: UartIxPtr = UartOxPtr = 0;
	movlw	(0)
	movwf	(_UartOxPtr)
	movwf	(??_ClearUartBuffer+0)+0
	movf	(??_ClearUartBuffer+0)+0,w
	movwf	(_UartIxPtr)
	line	69
	
l3075:	
	return
	opt stack 0
GLOBAL	__end_of_ClearUartBuffer
	__end_of_ClearUartBuffer:
;; =============== function _ClearUartBuffer ends ============

	signat	_ClearUartBuffer,88
	global	_SendUartByte
psect	text1864,local,class=CODE,delta=2
global __ptext1864
__ptext1864:

;; *************** function _SendUartByte *****************
;; Defined at:
;;		line 35 in file "C:\Users\GauravLT\Desktop\AccessControlBy4Users\AccessControlUsingFingerSense-master\AccessControlUsingFingerSense-master\PIC16F877A_R307\FingerPrintSensor_R307.c"
;; Parameters:    Size  Location     Type
;;  val             1    wreg     unsigned char 
;; Auto vars:     Size  Location     Type
;;  val             1    0[BANK0 ] unsigned char 
;; Return value:  Size  Location     Type
;;		None               void
;; Registers used:
;;		wreg
;; Tracked objects:
;;		On entry : 0/0
;;		On exit  : 0/0
;;		Unchanged: 0/0
;; Data sizes:     COMMON   BANK0   BANK1   BANK3   BANK2
;;      Params:         0       0       0       0       0
;;      Locals:         0       1       0       0       0
;;      Temps:          0       0       0       0       0
;;      Totals:         0       1       0       0       0
;;Total ram usage:        1 bytes
;; Hardware stack levels used:    1
;; Hardware stack levels required when called:    2
;; This function calls:
;;		Nothing
;; This function is called by:
;;		_SendUartValue
;;		_sendPackage
;;		_SendUartString
;; This function uses a non-reentrant model
;;
psect	text1864
	file	"C:\Users\GauravLT\Desktop\AccessControlBy4Users\AccessControlUsingFingerSense-master\AccessControlUsingFingerSense-master\PIC16F877A_R307\FingerPrintSensor_R307.c"
	line	35
	global	__size_of_SendUartByte
	__size_of_SendUartByte	equ	__end_of_SendUartByte-_SendUartByte
	
_SendUartByte:	
	opt	stack 2
; Regs used in _SendUartByte: [wreg]
;SendUartByte@val stored from wreg
	line	43
	bcf	status, 5	;RP0=0, select bank0
	bcf	status, 6	;RP1=0, select bank0
	movwf	(SendUartByte@val)
	
l8950:	
;FingerPrintSensor_R307.c: 42: {
;FingerPrintSensor_R307.c: 43: TXIF=0;
	bcf	(100/8),(100)&7
	line	44
	
l8952:	
;FingerPrintSensor_R307.c: 44: TXREG=val;
	movf	(SendUartByte@val),w
	movwf	(25)	;volatile
	line	45
;FingerPrintSensor_R307.c: 45: while(TXIF==0);
	goto	l3053
	
l3054:	
	
l3053:	
	btfss	(100/8),(100)&7
	goto	u6651
	goto	u6650
u6651:
	goto	l3053
u6650:
	goto	l3056
	
l3055:	
	line	47
	
l3056:	
	return
	opt stack 0
GLOBAL	__end_of_SendUartByte
	__end_of_SendUartByte:
;; =============== function _SendUartByte ends ============

	signat	_SendUartByte,4216
	global	_UartInit
psect	text1865,local,class=CODE,delta=2
global __ptext1865
__ptext1865:

;; *************** function _UartInit *****************
;; Defined at:
;;		line 20 in file "C:\Users\GauravLT\Desktop\AccessControlBy4Users\AccessControlUsingFingerSense-master\AccessControlUsingFingerSense-master\PIC16F877A_R307\FingerPrintSensor_R307.c"
;; Parameters:    Size  Location     Type
;;		None
;; Auto vars:     Size  Location     Type
;;		None
;; Return value:  Size  Location     Type
;;		None               void
;; Registers used:
;;		wreg
;; Tracked objects:
;;		On entry : 0/0
;;		On exit  : 0/0
;;		Unchanged: 0/0
;; Data sizes:     COMMON   BANK0   BANK1   BANK3   BANK2
;;      Params:         0       0       0       0       0
;;      Locals:         0       0       0       0       0
;;      Temps:          0       0       0       0       0
;;      Totals:         0       0       0       0       0
;;Total ram usage:        0 bytes
;; Hardware stack levels used:    1
;; Hardware stack levels required when called:    2
;; This function calls:
;;		Nothing
;; This function is called by:
;;		_main
;; This function uses a non-reentrant model
;;
psect	text1865
	file	"C:\Users\GauravLT\Desktop\AccessControlBy4Users\AccessControlUsingFingerSense-master\AccessControlUsingFingerSense-master\PIC16F877A_R307\FingerPrintSensor_R307.c"
	line	20
	global	__size_of_UartInit
	__size_of_UartInit	equ	__end_of_UartInit-_UartInit
	
_UartInit:	
	opt	stack 5
; Regs used in _UartInit: [wreg]
	line	22
	
l8946:	
;FingerPrintSensor_R307.c: 22: GIE = 1;
	bsf	(95/8),(95)&7
	line	23
;FingerPrintSensor_R307.c: 23: PEIE = 1;
	bsf	(94/8),(94)&7
	line	24
;FingerPrintSensor_R307.c: 24: RCIE = 1;
	bsf	status, 5	;RP0=1, select bank1
	bcf	status, 6	;RP1=0, select bank1
	bsf	(1125/8)^080h,(1125)&7
	line	27
	
l8948:	
;FingerPrintSensor_R307.c: 27: TXSTA=0x24;
	movlw	(024h)
	movwf	(152)^080h	;volatile
	line	28
;FingerPrintSensor_R307.c: 28: RCSTA=0x90;
	movlw	(090h)
	bcf	status, 5	;RP0=0, select bank0
	bcf	status, 6	;RP1=0, select bank0
	movwf	(24)	;volatile
	line	29
;FingerPrintSensor_R307.c: 29: SPBRG=20;
	movlw	(014h)
	bsf	status, 5	;RP0=1, select bank1
	bcf	status, 6	;RP1=0, select bank1
	movwf	(153)^080h	;volatile
	line	30
	
l3050:	
	return
	opt stack 0
GLOBAL	__end_of_UartInit
	__end_of_UartInit:
;; =============== function _UartInit ends ============

	signat	_UartInit,88
	global	_GetKey
psect	text1866,local,class=CODE,delta=2
global __ptext1866
__ptext1866:

;; *************** function _GetKey *****************
;; Defined at:
;;		line 36 in file "C:\Users\GauravLT\Desktop\AccessControlBy4Users\AccessControlUsingFingerSense-master\AccessControlUsingFingerSense-master\PIC16F877A_R307\keypd.c"
;; Parameters:    Size  Location     Type
;;		None
;; Auto vars:     Size  Location     Type
;;  key             1    1[BANK0 ] unsigned char 
;; Return value:  Size  Location     Type
;;                  1    wreg      unsigned char 
;; Registers used:
;;		wreg, fsr0l, fsr0h, status,2, status,0
;; Tracked objects:
;;		On entry : 0/0
;;		On exit  : 0/0
;;		Unchanged: 0/0
;; Data sizes:     COMMON   BANK0   BANK1   BANK3   BANK2
;;      Params:         0       0       0       0       0
;;      Locals:         0       1       0       0       0
;;      Temps:          0       1       0       0       0
;;      Totals:         0       2       0       0       0
;;Total ram usage:        2 bytes
;; Hardware stack levels used:    1
;; Hardware stack levels required when called:    2
;; This function calls:
;;		Nothing
;; This function is called by:
;;		_AddNewUserAfterAdminConfirm
;;		_DeleteUserAfterAdminConfirm
;;		_menu
;;		_HiSpeedScan0
;;		_AddNewUser
;; This function uses a non-reentrant model
;;
psect	text1866
	file	"C:\Users\GauravLT\Desktop\AccessControlBy4Users\AccessControlUsingFingerSense-master\AccessControlUsingFingerSense-master\PIC16F877A_R307\keypd.c"
	line	36
	global	__size_of_GetKey
	__size_of_GetKey	equ	__end_of_GetKey-_GetKey
	
_GetKey:	
	opt	stack 4
; Regs used in _GetKey: [wreg-fsr0h+status,2+status,0]
	line	37
	
l8936:	
;keypd.c: 37: unsigned char key = KeypdBuffer[OxPtr];
	movf	(_OxPtr),w
	addlw	_KeypdBuffer&0ffh
	movwf	fsr0
	bsf	status, 7	;select IRP bank3
	movf	indf,w
	bcf	status, 5	;RP0=0, select bank0
	bcf	status, 6	;RP1=0, select bank0
	movwf	(??_GetKey+0)+0
	movf	(??_GetKey+0)+0,w
	movwf	(GetKey@key)
	line	38
	
l8938:	
;keypd.c: 38: if(++OxPtr == 20)
	movlw	(01h)
	movwf	(??_GetKey+0)+0
	movf	(??_GetKey+0)+0,w
	addwf	(_OxPtr),f
	movf	((_OxPtr)),w
	xorlw	014h
	skipz
	goto	u6641
	goto	u6640
u6641:
	goto	l8942
u6640:
	line	39
	
l8940:	
;keypd.c: 39: OxPtr = 0;
	clrf	(_OxPtr)
	goto	l8942
	
l2315:	
	line	41
	
l8942:	
;keypd.c: 41: return key;
	movf	(GetKey@key),w
	goto	l2316
	
l8944:	
	line	42
	
l2316:	
	return
	opt stack 0
GLOBAL	__end_of_GetKey
	__end_of_GetKey:
;; =============== function _GetKey ends ============

	signat	_GetKey,89
	global	_IsKeyPending
psect	text1867,local,class=CODE,delta=2
global __ptext1867
__ptext1867:

;; *************** function _IsKeyPending *****************
;; Defined at:
;;		line 19 in file "C:\Users\GauravLT\Desktop\AccessControlBy4Users\AccessControlUsingFingerSense-master\AccessControlUsingFingerSense-master\PIC16F877A_R307\keypd.c"
;; Parameters:    Size  Location     Type
;;		None
;; Auto vars:     Size  Location     Type
;;		None
;; Return value:  Size  Location     Type
;;                  1    wreg      unsigned char 
;; Registers used:
;;		wreg
;; Tracked objects:
;;		On entry : 0/0
;;		On exit  : 0/0
;;		Unchanged: 0/0
;; Data sizes:     COMMON   BANK0   BANK1   BANK3   BANK2
;;      Params:         0       0       0       0       0
;;      Locals:         0       0       0       0       0
;;      Temps:          0       0       0       0       0
;;      Totals:         0       0       0       0       0
;;Total ram usage:        0 bytes
;; Hardware stack levels used:    1
;; Hardware stack levels required when called:    2
;; This function calls:
;;		Nothing
;; This function is called by:
;;		_AddNewUserAfterAdminConfirm
;;		_DeleteUserAfterAdminConfirm
;;		_menu
;;		_HiSpeedScan0
;;		_AddNewUser
;; This function uses a non-reentrant model
;;
psect	text1867
	file	"C:\Users\GauravLT\Desktop\AccessControlBy4Users\AccessControlUsingFingerSense-master\AccessControlUsingFingerSense-master\PIC16F877A_R307\keypd.c"
	line	19
	global	__size_of_IsKeyPending
	__size_of_IsKeyPending	equ	__end_of_IsKeyPending-_IsKeyPending
	
_IsKeyPending:	
	opt	stack 4
; Regs used in _IsKeyPending: [wreg]
	line	20
	
l8932:	
;keypd.c: 20: return IxPtr != OxPtr;
	movf	(_IxPtr),w
	xorwf	(_OxPtr),w
	movlw	0
	skipz
	movlw	1
	goto	l2308
	
l8934:	
	line	21
	
l2308:	
	return
	opt stack 0
GLOBAL	__end_of_IsKeyPending
	__end_of_IsKeyPending:
;; =============== function _IsKeyPending ends ============

	signat	_IsKeyPending,89
	global	_ee_write
psect	text1868,local,class=CODE,delta=2
global __ptext1868
__ptext1868:

;; *************** function _ee_write *****************
;; Defined at:
;;		line 39 in file "C:\Users\GauravLT\Desktop\AccessControlBy4Users\AccessControlUsingFingerSense-master\AccessControlUsingFingerSense-master\PIC16F877A_R307\eeprom.c"
;; Parameters:    Size  Location     Type
;;  a               1    wreg     unsigned char 
;;  d               1    3[BANK0 ] unsigned char 
;; Auto vars:     Size  Location     Type
;;  a               1    4[BANK0 ] unsigned char 
;; Return value:  Size  Location     Type
;;		None               void
;; Registers used:
;;		wreg
;; Tracked objects:
;;		On entry : 0/0
;;		On exit  : 0/0
;;		Unchanged: 0/0
;; Data sizes:     COMMON   BANK0   BANK1   BANK3   BANK2
;;      Params:         0       1       0       0       0
;;      Locals:         0       1       0       0       0
;;      Temps:          0       0       0       0       0
;;      Totals:         0       2       0       0       0
;;Total ram usage:        2 bytes
;; Hardware stack levels used:    1
;; Hardware stack levels required when called:    2
;; This function calls:
;;		Nothing
;; This function is called by:
;;		_EraseAllUsersAfterAdminConfirm
;;		_ee_eraseNPos
;;		_reserveEElocation
;;		_releaseEElocation
;; This function uses a non-reentrant model
;;
psect	text1868
	file	"C:\Users\GauravLT\Desktop\AccessControlBy4Users\AccessControlUsingFingerSense-master\AccessControlUsingFingerSense-master\PIC16F877A_R307\eeprom.c"
	line	39
	global	__size_of_ee_write
	__size_of_ee_write	equ	__end_of_ee_write-_ee_write
	
_ee_write:	
	opt	stack 3
; Regs used in _ee_write: [wreg]
;ee_write@a stored from wreg
	line	41
	bcf	status, 5	;RP0=0, select bank0
	bcf	status, 6	;RP1=0, select bank0
	movwf	(ee_write@a)
	line	40
;eeprom.c: 40: again:
	
l3963:	
	line	41
;eeprom.c: 41: EEPGD=0;
	bsf	status, 5	;RP0=1, select bank3
	bsf	status, 6	;RP1=1, select bank3
	bcf	(3175/8)^0180h,(3175)&7
	line	42
	
l8922:	
;eeprom.c: 42: EEADR=a;
	bcf	status, 5	;RP0=0, select bank0
	bcf	status, 6	;RP1=0, select bank0
	movf	(ee_write@a),w
	bcf	status, 5	;RP0=0, select bank2
	bsf	status, 6	;RP1=1, select bank2
	movwf	(269)^0100h	;volatile
	line	43
;eeprom.c: 43: EEDATA=d;
	bcf	status, 5	;RP0=0, select bank0
	bcf	status, 6	;RP1=0, select bank0
	movf	(ee_write@d),w
	bcf	status, 5	;RP0=0, select bank2
	bsf	status, 6	;RP1=1, select bank2
	movwf	(268)^0100h	;volatile
	line	44
	
l8924:	
;eeprom.c: 44: WRERR=0;
	bsf	status, 5	;RP0=1, select bank3
	bsf	status, 6	;RP1=1, select bank3
	bcf	(3171/8)^0180h,(3171)&7
	line	45
	
l8926:	
;eeprom.c: 45: WREN=1;
	bsf	(3170/8)^0180h,(3170)&7
	line	46
;eeprom.c: 46: EECON2=0X55;
	movlw	(055h)
	movwf	(397)^0180h	;volatile
	line	47
;eeprom.c: 47: EECON2=0XAA;
	movlw	(0AAh)
	movwf	(397)^0180h	;volatile
	line	48
	
l8928:	
;eeprom.c: 48: WR=1;
	bsf	(3169/8)^0180h,(3169)&7
	line	49
;eeprom.c: 49: while(WR==1)
	goto	l3964
	
l3965:	
	line	50
;eeprom.c: 50: WREN=0;
	bcf	(3170/8)^0180h,(3170)&7
	
l3964:	
	line	49
	btfsc	(3169/8)^0180h,(3169)&7
	goto	u6621
	goto	u6620
u6621:
	goto	l3965
u6620:
	
l3966:	
	line	51
;eeprom.c: 51: if(WRERR==1)
	btfss	(3171/8)^0180h,(3171)&7
	goto	u6631
	goto	u6630
u6631:
	goto	l3968
u6630:
	goto	l3963
	line	53
	
l8930:	
;eeprom.c: 52: {
;eeprom.c: 53: goto again;
	goto	l3963
	line	54
	
l3967:	
	line	55
	
l3968:	
	return
	opt stack 0
GLOBAL	__end_of_ee_write
	__end_of_ee_write:
;; =============== function _ee_write ends ============

	signat	_ee_write,8312
	global	_ee_read
psect	text1869,local,class=CODE,delta=2
global __ptext1869
__ptext1869:

;; *************** function _ee_read *****************
;; Defined at:
;;		line 59 in file "C:\Users\GauravLT\Desktop\AccessControlBy4Users\AccessControlUsingFingerSense-master\AccessControlUsingFingerSense-master\PIC16F877A_R307\eeprom.c"
;; Parameters:    Size  Location     Type
;;  a               1    wreg     unsigned char 
;; Auto vars:     Size  Location     Type
;;  a               1    1[BANK0 ] unsigned char 
;;  d               1    2[BANK0 ] unsigned char 
;; Return value:  Size  Location     Type
;;                  1    wreg      unsigned char 
;; Registers used:
;;		wreg
;; Tracked objects:
;;		On entry : 0/0
;;		On exit  : 0/0
;;		Unchanged: 0/0
;; Data sizes:     COMMON   BANK0   BANK1   BANK3   BANK2
;;      Params:         0       0       0       0       0
;;      Locals:         0       2       0       0       0
;;      Temps:          0       1       0       0       0
;;      Totals:         0       3       0       0       0
;;Total ram usage:        3 bytes
;; Hardware stack levels used:    1
;; Hardware stack levels required when called:    2
;; This function calls:
;;		Nothing
;; This function is called by:
;;		_EraseAllUsersAfterAdminConfirm
;;		_AlterAdminUser
;;		_AddNewUserAfterAdminConfirm
;;		_DeleteUserAfterAdminConfirm
;;		_reserveEElocation
;;		_releaseEElocation
;;		_getNextAvailLocation
;; This function uses a non-reentrant model
;;
psect	text1869
	file	"C:\Users\GauravLT\Desktop\AccessControlBy4Users\AccessControlUsingFingerSense-master\AccessControlUsingFingerSense-master\PIC16F877A_R307\eeprom.c"
	line	59
	global	__size_of_ee_read
	__size_of_ee_read	equ	__end_of_ee_read-_ee_read
	
_ee_read:	
	opt	stack 3
; Regs used in _ee_read: [wreg]
;ee_read@a stored from wreg
	line	61
	bcf	status, 5	;RP0=0, select bank0
	bcf	status, 6	;RP1=0, select bank0
	movwf	(ee_read@a)
	
l8910:	
;eeprom.c: 60: unsigned char d;
;eeprom.c: 61: EEPGD=0;
	bsf	status, 5	;RP0=1, select bank3
	bsf	status, 6	;RP1=1, select bank3
	bcf	(3175/8)^0180h,(3175)&7
	line	62
	
l8912:	
;eeprom.c: 62: EEADR=a;
	bcf	status, 5	;RP0=0, select bank0
	bcf	status, 6	;RP1=0, select bank0
	movf	(ee_read@a),w
	bcf	status, 5	;RP0=0, select bank2
	bsf	status, 6	;RP1=1, select bank2
	movwf	(269)^0100h	;volatile
	line	63
	
l8914:	
;eeprom.c: 63: WREN=0;
	bsf	status, 5	;RP0=1, select bank3
	bsf	status, 6	;RP1=1, select bank3
	bcf	(3170/8)^0180h,(3170)&7
	line	64
	
l8916:	
;eeprom.c: 64: RD=1;
	bsf	(3168/8)^0180h,(3168)&7
	line	65
;eeprom.c: 65: while(RD==1);
	goto	l3971
	
l3972:	
	
l3971:	
	btfsc	(3168/8)^0180h,(3168)&7
	goto	u6611
	goto	u6610
u6611:
	goto	l3971
u6610:
	goto	l8918
	
l3973:	
	line	66
	
l8918:	
;eeprom.c: 66: d=EEDATA;
	bcf	status, 5	;RP0=0, select bank2
	bsf	status, 6	;RP1=1, select bank2
	movf	(268)^0100h,w	;volatile
	bcf	status, 5	;RP0=0, select bank0
	bcf	status, 6	;RP1=0, select bank0
	movwf	(??_ee_read+0)+0
	movf	(??_ee_read+0)+0,w
	movwf	(ee_read@d)
	line	67
;eeprom.c: 67: return d;
	movf	(ee_read@d),w
	goto	l3974
	
l8920:	
	line	68
	
l3974:	
	return
	opt stack 0
GLOBAL	__end_of_ee_read
	__end_of_ee_read:
;; =============== function _ee_read ends ============

	signat	_ee_read,4217
	global	_memset1
psect	text1870,local,class=CODE,delta=2
global __ptext1870
__ptext1870:

;; *************** function _memset1 *****************
;; Defined at:
;;		line 87 in file "C:\Users\GauravLT\Desktop\AccessControlBy4Users\AccessControlUsingFingerSense-master\AccessControlUsingFingerSense-master\PIC16F877A_R307\eeprom.c"
;; Parameters:    Size  Location     Type
;;  str             2    0[BANK0 ] PTR unsigned char 
;;		 -> FillUpResponse@_Response(12), DeleteUserAfterAdminConfirm@buff(10), ControlAccess@SelectedUserArr(4), LcdBuffer(32), 
;;  data            1    2[BANK0 ] unsigned char 
;;  len             2    3[BANK0 ] unsigned int 
;; Auto vars:     Size  Location     Type
;;		None
;; Return value:  Size  Location     Type
;;		None               void
;; Registers used:
;;		wreg, fsr0l, fsr0h, status,2, status,0
;; Tracked objects:
;;		On entry : 0/0
;;		On exit  : 0/0
;;		Unchanged: 0/0
;; Data sizes:     COMMON   BANK0   BANK1   BANK3   BANK2
;;      Params:         0       5       0       0       0
;;      Locals:         0       0       0       0       0
;;      Temps:          0       3       0       0       0
;;      Totals:         0       8       0       0       0
;;Total ram usage:        8 bytes
;; Hardware stack levels used:    1
;; Hardware stack levels required when called:    2
;; This function calls:
;;		Nothing
;; This function is called by:
;;		_LcdClear
;;		_ControlAccess
;;		_DeleteUserAfterAdminConfirm
;;		_FillUpResponse
;; This function uses a non-reentrant model
;;
psect	text1870
	file	"C:\Users\GauravLT\Desktop\AccessControlBy4Users\AccessControlUsingFingerSense-master\AccessControlUsingFingerSense-master\PIC16F877A_R307\eeprom.c"
	line	87
	global	__size_of_memset1
	__size_of_memset1	equ	__end_of_memset1-_memset1
	
_memset1:	
	opt	stack 4
; Regs used in _memset1: [wreg-fsr0h+status,2+status,0]
	line	88
	
l7440:	
;eeprom.c: 88: while(len>0)
	goto	l7446
	
l3990:	
	line	90
	
l7442:	
;eeprom.c: 89: {
;eeprom.c: 90: len--;
	movlw	low(01h)
	bcf	status, 5	;RP0=0, select bank0
	bcf	status, 6	;RP1=0, select bank0
	subwf	(memset1@len),f
	movlw	high(01h)
	skipc
	decf	(memset1@len+1),f
	subwf	(memset1@len+1),f
	line	91
	
l7444:	
;eeprom.c: 91: *(str+len)=data;
	movf	(memset1@data),w
	movwf	(??_memset1+0)+0
	movf	(memset1@len),w
	addwf	(memset1@str),w
	movwf	(??_memset1+1)+0
	movf	(memset1@str+1),w
	skipnc
	addlw	1
	movwf	1+((??_memset1+1)+0)
	movf	0+(??_memset1+1)+0,w
	movwf	fsr0
	bsf	status,7
	btfss	1+(??_memset1+1)+0,0
	bcf	status,7
	movf	(??_memset1+0)+0,w
	movwf	indf
	goto	l7446
	line	92
	
l3989:	
	line	88
	
l7446:	
	bcf	status, 5	;RP0=0, select bank0
	bcf	status, 6	;RP1=0, select bank0
	movf	((memset1@len+1)),w
	iorwf	((memset1@len)),w
	skipz
	goto	u4251
	goto	u4250
u4251:
	goto	l7442
u4250:
	goto	l3992
	
l3991:	
	line	93
	
l3992:	
	return
	opt stack 0
GLOBAL	__end_of_memset1
	__end_of_memset1:
;; =============== function _memset1 ends ============

	signat	_memset1,12408
	global	_LcdDelay
psect	text1871,local,class=CODE,delta=2
global __ptext1871
__ptext1871:

;; *************** function _LcdDelay *****************
;; Defined at:
;;		line 72 in file "C:\Users\GauravLT\Desktop\AccessControlBy4Users\AccessControlUsingFingerSense-master\AccessControlUsingFingerSense-master\PIC16F877A_R307\lcd.c"
;; Parameters:    Size  Location     Type
;;  d               2    0[BANK0 ] unsigned int 
;; Auto vars:     Size  Location     Type
;;		None
;; Return value:  Size  Location     Type
;;		None               void
;; Registers used:
;;		wreg, status,2, status,0
;; Tracked objects:
;;		On entry : 0/0
;;		On exit  : 0/0
;;		Unchanged: 0/0
;; Data sizes:     COMMON   BANK0   BANK1   BANK3   BANK2
;;      Params:         0       2       0       0       0
;;      Locals:         0       0       0       0       0
;;      Temps:          0       0       0       0       0
;;      Totals:         0       2       0       0       0
;;Total ram usage:        2 bytes
;; Hardware stack levels used:    1
;; Hardware stack levels required when called:    2
;; This function calls:
;;		Nothing
;; This function is called by:
;;		_LcdInit
;;		_SendByte
;;		_PutKey
;; This function uses a non-reentrant model
;;
psect	text1871
	file	"C:\Users\GauravLT\Desktop\AccessControlBy4Users\AccessControlUsingFingerSense-master\AccessControlUsingFingerSense-master\PIC16F877A_R307\lcd.c"
	line	72
	global	__size_of_LcdDelay
	__size_of_LcdDelay	equ	__end_of_LcdDelay-_LcdDelay
	
_LcdDelay:	
	opt	stack 2
; Regs used in _LcdDelay: [wreg+status,2+status,0]
	line	73
	
l8900:	
;lcd.c: 73: while(d>0) d--;
	goto	l8904
	
l723:	
	
l8902:	
	movlw	low(01h)
	bcf	status, 5	;RP0=0, select bank0
	bcf	status, 6	;RP1=0, select bank0
	subwf	(LcdDelay@d),f
	movlw	high(01h)
	skipc
	decf	(LcdDelay@d+1),f
	subwf	(LcdDelay@d+1),f
	goto	l8904
	
l722:	
	
l8904:	
	bcf	status, 5	;RP0=0, select bank0
	bcf	status, 6	;RP1=0, select bank0
	movf	((LcdDelay@d+1)),w
	iorwf	((LcdDelay@d)),w
	skipz
	goto	u6591
	goto	u6590
u6591:
	goto	l8902
u6590:
	goto	l725
	
l724:	
	line	74
	
l725:	
	return
	opt stack 0
GLOBAL	__end_of_LcdDelay
	__end_of_LcdDelay:
;; =============== function _LcdDelay ends ============

	signat	_LcdDelay,4216
	global	_isr
psect	text1872,local,class=CODE,delta=2
global __ptext1872
__ptext1872:

;; *************** function _isr *****************
;; Defined at:
;;		line 437 in file "C:\Users\GauravLT\Desktop\AccessControlBy4Users\AccessControlUsingFingerSense-master\AccessControlUsingFingerSense-master\PIC16F877A_R307\main.c"
;; Parameters:    Size  Location     Type
;;		None
;; Auto vars:     Size  Location     Type
;;		None
;; Return value:  Size  Location     Type
;;		None               void
;; Registers used:
;;		wreg, fsr0l, fsr0h, status,2, status,0, pclath, cstack
;; Tracked objects:
;;		On entry : 0/0
;;		On exit  : 0/0
;;		Unchanged: 0/0
;; Data sizes:     COMMON   BANK0   BANK1   BANK3   BANK2
;;      Params:         0       0       0       0       0
;;      Locals:         0       0       0       0       0
;;      Temps:          4       0       0       0       0
;;      Totals:         4       0       0       0       0
;;Total ram usage:        4 bytes
;; Hardware stack levels used:    1
;; Hardware stack levels required when called:    1
;; This function calls:
;;		_PutUartByte
;; This function is called by:
;;		Interrupt level 1
;; This function uses a non-reentrant model
;;
psect	text1872
	file	"C:\Users\GauravLT\Desktop\AccessControlBy4Users\AccessControlUsingFingerSense-master\AccessControlUsingFingerSense-master\PIC16F877A_R307\main.c"
	line	437
	global	__size_of_isr
	__size_of_isr	equ	__end_of_isr-_isr
	
_isr:	
	opt	stack 0
; Regs used in _isr: [wreg-fsr0h+status,2+status,0+pclath+cstack]
psect	intentry,class=CODE,delta=2
global __pintentry
__pintentry:
global interrupt_function
interrupt_function:
	global saved_w
	saved_w	set	btemp+0
	movwf	saved_w
	swapf	status,w
	movwf	(??_isr+0)
	movf	fsr0,w
	movwf	(??_isr+1)
	movf	pclath,w
	movwf	(??_isr+2)
	bcf	status, 5	;RP0=0, select bank0
	bcf	status, 6	;RP1=0, select bank0
	movf	btemp+1,w
	movwf	(??_isr+3)
	ljmp	_isr
psect	text1872
	line	438
	
i1l7488:	
;main.c: 438: if(RCIF == 1)
	btfss	(101/8),(101)&7
	goto	u431_21
	goto	u431_20
u431_21:
	goto	i1l1572
u431_20:
	line	440
	
i1l7490:	
;main.c: 439: {
;main.c: 440: PutUartByte(RCREG);
	movf	(26),w	;volatile
	fcall	_PutUartByte
	line	441
	
i1l7492:	
;main.c: 441: RCIF = 0;
	bcf	status, 5	;RP0=0, select bank0
	bcf	status, 6	;RP1=0, select bank0
	bcf	(101/8),(101)&7
	goto	i1l1572
	line	442
	
i1l1571:	
	line	443
	
i1l1572:	
	movf	(??_isr+3),w
	movwf	btemp+1
	movf	(??_isr+2),w
	movwf	pclath
	movf	(??_isr+1),w
	movwf	fsr0
	swapf	(??_isr+0)^0FFFFFF80h,w
	movwf	status
	swapf	saved_w,f
	swapf	saved_w,w
	retfie
	opt stack 0
GLOBAL	__end_of_isr
	__end_of_isr:
;; =============== function _isr ends ============

	signat	_isr,88
	global	_PutUartByte
psect	text1873,local,class=CODE,delta=2
global __ptext1873
__ptext1873:

;; *************** function _PutUartByte *****************
;; Defined at:
;;		line 75 in file "C:\Users\GauravLT\Desktop\AccessControlBy4Users\AccessControlUsingFingerSense-master\AccessControlUsingFingerSense-master\PIC16F877A_R307\FingerPrintSensor_R307.c"
;; Parameters:    Size  Location     Type
;;  val             1    wreg     unsigned char 
;; Auto vars:     Size  Location     Type
;;  val             1    1[COMMON] unsigned char 
;; Return value:  Size  Location     Type
;;		None               void
;; Registers used:
;;		wreg, fsr0l, fsr0h, status,2, status,0
;; Tracked objects:
;;		On entry : 0/0
;;		On exit  : 0/0
;;		Unchanged: 0/0
;; Data sizes:     COMMON   BANK0   BANK1   BANK3   BANK2
;;      Params:         0       0       0       0       0
;;      Locals:         1       0       0       0       0
;;      Temps:          1       0       0       0       0
;;      Totals:         2       0       0       0       0
;;Total ram usage:        2 bytes
;; Hardware stack levels used:    1
;; This function calls:
;;		Nothing
;; This function is called by:
;;		_isr
;; This function uses a non-reentrant model
;;
psect	text1873
	file	"C:\Users\GauravLT\Desktop\AccessControlBy4Users\AccessControlUsingFingerSense-master\AccessControlUsingFingerSense-master\PIC16F877A_R307\FingerPrintSensor_R307.c"
	line	75
	global	__size_of_PutUartByte
	__size_of_PutUartByte	equ	__end_of_PutUartByte-_PutUartByte
	
_PutUartByte:	
	opt	stack 0
; Regs used in _PutUartByte: [wreg-fsr0h+status,2+status,0]
;PutUartByte@val stored from wreg
	movwf	(PutUartByte@val)
	line	76
	
i1l7494:	
;FingerPrintSensor_R307.c: 76: UartBuffer[UartIxPtr] = val;
	movf	(PutUartByte@val),w
	movwf	(??_PutUartByte+0)+0
	movf	(_UartIxPtr),w
	addlw	_UartBuffer&0ffh
	movwf	fsr0
	movf	(??_PutUartByte+0)+0,w
	bsf	status, 7	;select IRP bank2
	movwf	indf
	line	77
	
i1l7496:	
;FingerPrintSensor_R307.c: 77: if(++UartIxPtr == 56)
	movlw	(01h)
	movwf	(??_PutUartByte+0)+0
	movf	(??_PutUartByte+0)+0,w
	addwf	(_UartIxPtr),f
	movf	((_UartIxPtr)),w
	xorlw	038h
	skipz
	goto	u432_21
	goto	u432_20
u432_21:
	goto	i1l3082
u432_20:
	line	78
	
i1l7498:	
;FingerPrintSensor_R307.c: 78: UartIxPtr = 0;
	clrf	(_UartIxPtr)
	goto	i1l3082
	
i1l3081:	
	line	79
	
i1l3082:	
	return
	opt stack 0
GLOBAL	__end_of_PutUartByte
	__end_of_PutUartByte:
;; =============== function _PutUartByte ends ============

	signat	_PutUartByte,4216
psect	text1874,local,class=CODE,delta=2
global __ptext1874
__ptext1874:
	global	btemp
	btemp set 07Eh

	DABS	1,126,2	;btemp
	global	wtemp0
	wtemp0 set btemp
	end
